

Microchip MPLAB XC8 Assembler V2.40 build 20220703182018 
                                                                                               Tue Dec 13 12:15:55 2022

Microchip MPLAB XC8 C Compiler v2.40 (Free license) build 20220703182018 Og1 
     1                           	processor	16F877A
     2                           	pagewidth 120
     3                           	opt	flic
     4                           	psect	strings,global,class=STRING,delta=2,noexec
     5                           	psect	cinit,global,class=CODE,merge=1,delta=2
     6                           	psect	bssCOMMON,global,class=COMMON,space=1,delta=1,noexec
     7                           	psect	bssBANK0,global,class=BANK0,space=1,delta=1,noexec
     8                           	psect	cstackCOMMON,global,class=COMMON,space=1,delta=1,noexec
     9                           	psect	cstackBANK0,global,class=BANK0,space=1,delta=1,noexec
    10                           	psect	maintext,global,class=CODE,split=1,delta=2
    11                           	psect	text1,local,class=CODE,merge=1,delta=2
    12                           	psect	text2,local,class=CODE,merge=1,delta=2
    13                           	psect	text3,local,class=CODE,merge=1,delta=2
    14                           	psect	text4,local,class=CODE,merge=1,delta=2
    15                           	psect	text5,local,class=CODE,merge=1,delta=2
    16                           	psect	text6,local,class=CODE,merge=1,delta=2
    17                           	psect	text7,local,class=CODE,merge=1,delta=2
    18                           	psect	text8,local,class=CODE,merge=1,delta=2
    19                           	psect	intentry,global,class=CODE,delta=2
    20                           	psect	config,global,abs,ovrld,class=CONFIG,space=4,delta=2,noexec
    21                           	dabs	1,0x7E,2
    22     0000                     
    23                           ; Version 2.20
    24                           ; Generated 12/02/2020 GMT
    25                           ; 
    26                           ; Copyright © 2020, Microchip Technology Inc. and its subsidiaries ("Microchip")
    27                           ; All rights reserved.
    28                           ; 
    29                           ; This software is developed by Microchip Technology Inc. and its subsidiaries ("Microch
      +                          ip").
    30                           ; 
    31                           ; Redistribution and use in source and binary forms, with or without modification, are
    32                           ; permitted provided that the following conditions are met:
    33                           ; 
    34                           ;     1. Redistributions of source code must retain the above copyright notice, this lis
      +                          t of
    35                           ;        conditions and the following disclaimer.
    36                           ; 
    37                           ;     2. Redistributions in binary form must reproduce the above copyright notice, this 
      +                          list
    38                           ;        of conditions and the following disclaimer in the documentation and/or other
    39                           ;        materials provided with the distribution.
    40                           ; 
    41                           ;     3. Microchip's name may not be used to endorse or promote products derived from th
      +                          is
    42                           ;        software without specific prior written permission.
    43                           ; 
    44                           ; THIS SOFTWARE IS PROVIDED BY MICROCHIP "AS IS" AND ANY EXPRESS OR IMPLIED WARRANTIES,
    45                           ; INCLUDING, BUT NOT LIMITED TO, THE IMPLIED WARRANTIES OF MERCHANTABILITY AND FITNESS F
      +                          OR
    46                           ; PURPOSE ARE DISCLAIMED.  IN NO EVENT SHALL MICROCHIP BE LIABLE FOR ANY DIRECT, INDIREC
      +                          T,
    47                           ; INCIDENTAL, SPECIAL, EXEMPLARY, OR CONSEQUENTIAL DAMAGES (INCLUDING BUT NOT LIMITED TO
    48                           ; PROCUREMENT OF SUBSTITUTE GOODS OR SERVICES; LOSS OF USE, DATA OR PROFITS; OR BUSINESS
    49                           ; INTERRUPTION) HOWSOEVER CAUSED AND ON ANY THEORY OF LIABILITY, WHETHER IN CONTRACT, ST
      +                          RICT
    50                           ; LIABILITY, OR TORT (INCLUDING NEGLIGENCE OR OTHERWISE) ARISING IN ANY WAY OUT OF THE U
      +                          SE OF
    51                           ; THIS SOFTWARE, EVEN IF ADVISED OF THE POSSIBILITY OF SUCH DAMAGE.
    52                           ; 
    53                           ; 
    54                           ; Code-generator required, PIC16F877A Definitions
    55                           ; 
    56                           ; SFR Addresses
    57     0000                     	;# 
    58     0001                     	;# 
    59     0002                     	;# 
    60     0003                     	;# 
    61     0004                     	;# 
    62     0005                     	;# 
    63     0006                     	;# 
    64     0007                     	;# 
    65     0008                     	;# 
    66     0009                     	;# 
    67     000A                     	;# 
    68     000B                     	;# 
    69     000C                     	;# 
    70     000D                     	;# 
    71     000E                     	;# 
    72     000E                     	;# 
    73     000F                     	;# 
    74     0010                     	;# 
    75     0011                     	;# 
    76     0012                     	;# 
    77     0013                     	;# 
    78     0014                     	;# 
    79     0015                     	;# 
    80     0015                     	;# 
    81     0016                     	;# 
    82     0017                     	;# 
    83     0018                     	;# 
    84     0019                     	;# 
    85     001A                     	;# 
    86     001B                     	;# 
    87     001B                     	;# 
    88     001C                     	;# 
    89     001D                     	;# 
    90     001E                     	;# 
    91     001F                     	;# 
    92     0081                     	;# 
    93     0085                     	;# 
    94     0086                     	;# 
    95     0087                     	;# 
    96     0088                     	;# 
    97     0089                     	;# 
    98     008C                     	;# 
    99     008D                     	;# 
   100     008E                     	;# 
   101     0091                     	;# 
   102     0092                     	;# 
   103     0093                     	;# 
   104     0094                     	;# 
   105     0098                     	;# 
   106     0099                     	;# 
   107     009C                     	;# 
   108     009D                     	;# 
   109     009E                     	;# 
   110     009F                     	;# 
   111     010C                     	;# 
   112     010D                     	;# 
   113     010E                     	;# 
   114     010F                     	;# 
   115     018C                     	;# 
   116     018D                     	;# 
   117     0000                     	;# 
   118     0001                     	;# 
   119     0002                     	;# 
   120     0003                     	;# 
   121     0004                     	;# 
   122     0005                     	;# 
   123     0006                     	;# 
   124     0007                     	;# 
   125     0008                     	;# 
   126     0009                     	;# 
   127     000A                     	;# 
   128     000B                     	;# 
   129     000C                     	;# 
   130     000D                     	;# 
   131     000E                     	;# 
   132     000E                     	;# 
   133     000F                     	;# 
   134     0010                     	;# 
   135     0011                     	;# 
   136     0012                     	;# 
   137     0013                     	;# 
   138     0014                     	;# 
   139     0015                     	;# 
   140     0015                     	;# 
   141     0016                     	;# 
   142     0017                     	;# 
   143     0018                     	;# 
   144     0019                     	;# 
   145     001A                     	;# 
   146     001B                     	;# 
   147     001B                     	;# 
   148     001C                     	;# 
   149     001D                     	;# 
   150     001E                     	;# 
   151     001F                     	;# 
   152     0081                     	;# 
   153     0085                     	;# 
   154     0086                     	;# 
   155     0087                     	;# 
   156     0088                     	;# 
   157     0089                     	;# 
   158     008C                     	;# 
   159     008D                     	;# 
   160     008E                     	;# 
   161     0091                     	;# 
   162     0092                     	;# 
   163     0093                     	;# 
   164     0094                     	;# 
   165     0098                     	;# 
   166     0099                     	;# 
   167     009C                     	;# 
   168     009D                     	;# 
   169     009E                     	;# 
   170     009F                     	;# 
   171     010C                     	;# 
   172     010D                     	;# 
   173     010E                     	;# 
   174     010F                     	;# 
   175     018C                     	;# 
   176     018D                     	;# 
   177     0006                     _PORTBbits	set	6
   178     0010                     _T1CONbits	set	16
   179     001E                     _ADRESH	set	30
   180     001F                     _ADCON0bits	set	31
   181     000F                     _TMR1H	set	15
   182     000E                     _TMR1L	set	14
   183     000C                     _PIR1bits	set	12
   184     0007                     _PORTCbits	set	7
   185     000B                     _INTCONbits	set	11
   186     0043                     _RD3	set	67
   187     0042                     _RD2	set	66
   188     0047                     _RD7	set	71
   189     0046                     _RD6	set	70
   190     0045                     _RD5	set	69
   191     0044                     _RD4	set	68
   192     0060                     _TMR1IF	set	96
   193     0066                     _ADIF	set	102
   194     0059                     _INTF	set	89
   195     008C                     _PIE1bits	set	140
   196     009E                     _ADRESL	set	158
   197     009F                     _ADCON1bits	set	159
   198     0088                     _TRISD	set	136
   199     0085                     _TRISA	set	133
   200     0087                     _TRISC	set	135
   201     0086                     _TRISB	set	134
   202     0081                     _OPTION_REGbits	set	129
   203                           
   204                           	psect	strings
   205     061D                     __pstrings:
   206     061D                     stringtab:
   207     061D                     __stringtab:
   208     061D                     stringcode:	
   209                           ;	String table - string pointers are 1 byte each
   210                           
   211     061D                     stringdir:
   212     061D  3006               	movlw	high stringdir
   213     061E  008A               	movwf	10
   214     061F  0804               	movf	4,w
   215     0620  0A84               	incf	4,f
   216     0621  0782               	addwf	2,f
   217     0622                     __stringbase:
   218     0622  3400               	retlw	0
   219     0623                     __end_of__stringtab:
   220     0623                     STR_6:
   221     0623  3445               	retlw	69	;'E'
   222     0624  3453               	retlw	83	;'S'
   223     0625  3454               	retlw	84	;'T'
   224     0626  3441               	retlw	65	;'A'
   225     0627  3444               	retlw	68	;'D'
   226     0628  344F               	retlw	79	;'O'
   227     0629  3420               	retlw	32	;' '
   228     062A  3444               	retlw	68	;'D'
   229     062B  3441               	retlw	65	;'A'
   230     062C  3420               	retlw	32	;' '
   231     062D  3445               	retlw	69	;'E'
   232     062E  3453               	retlw	83	;'S'
   233     062F  3443               	retlw	67	;'C'
   234     0630  344F               	retlw	79	;'O'
   235     0631  3454               	retlw	84	;'T'
   236     0632  3449               	retlw	73	;'I'
   237     0633  344C               	retlw	76	;'L'
   238     0634  3448               	retlw	72	;'H'
   239     0635  3441               	retlw	65	;'A'
   240     0636  3400               	retlw	0
   241     0637                     STR_7:
   242     0637  3445               	retlw	69	;'E'
   243     0638  3453               	retlw	83	;'S'
   244     0639  3443               	retlw	67	;'C'
   245     063A  344F               	retlw	79	;'O'
   246     063B  3454               	retlw	84	;'T'
   247     063C  3449               	retlw	73	;'I'
   248     063D  344C               	retlw	76	;'L'
   249     063E  3448               	retlw	72	;'H'
   250     063F  3441               	retlw	65	;'A'
   251     0640  343A               	retlw	58	;':'
   252     0641  3420               	retlw	32	;' '
   253     0642  3441               	retlw	65	;'A'
   254     0643  3442               	retlw	66	;'B'
   255     0644  3445               	retlw	69	;'E'
   256     0645  3452               	retlw	82	;'R'
   257     0646  3454               	retlw	84	;'T'
   258     0647  3441               	retlw	65	;'A'
   259     0648  3400               	retlw	0
   260     0649                     STR_4:
   261     0649  3445               	retlw	69	;'E'
   262     064A  3453               	retlw	83	;'S'
   263     064B  3454               	retlw	84	;'T'
   264     064C  3441               	retlw	65	;'A'
   265     064D  3444               	retlw	68	;'D'
   266     064E  344F               	retlw	79	;'O'
   267     064F  3420               	retlw	32	;' '
   268     0650  3444               	retlw	68	;'D'
   269     0651  344F               	retlw	79	;'O'
   270     0652  3420               	retlw	32	;' '
   271     0653  3450               	retlw	80	;'P'
   272     0654  344F               	retlw	79	;'O'
   273     0655  3452               	retlw	82	;'R'
   274     0656  3454               	retlw	84	;'T'
   275     0657  3441               	retlw	65	;'A'
   276     0658  344F               	retlw	79	;'O'
   277     0659  3400               	retlw	0
   278     065A                     STR_1:
   279     065A  3450               	retlw	80	;'P'
   280     065B  3445               	retlw	69	;'E'
   281     065C  3453               	retlw	83	;'S'
   282     065D  344F               	retlw	79	;'O'
   283     065E  3420               	retlw	32	;' '
   284     065F  3444               	retlw	68	;'D'
   285     0660  344F               	retlw	79	;'O'
   286     0661  3420               	retlw	32	;' '
   287     0662  344D               	retlw	77	;'M'
   288     0663  344F               	retlw	79	;'O'
   289     0664  3449               	retlw	73	;'I'
   290     0665  344E               	retlw	78	;'N'
   291     0666  3448               	retlw	72	;'H'
   292     0667  344F               	retlw	79	;'O'
   293     0668  3400               	retlw	0
   294     0669                     STR_8:
   295     0669  344E               	retlw	78	;'N'
   296     066A  3449               	retlw	73	;'I'
   297     066B  3456               	retlw	86	;'V'
   298     066C  3445               	retlw	69	;'E'
   299     066D  344C               	retlw	76	;'L'
   300     066E  3420               	retlw	32	;' '
   301     066F  3444               	retlw	68	;'D'
   302     0670  3441               	retlw	65	;'A'
   303     0671  3420               	retlw	32	;' '
   304     0672  3441               	retlw	65	;'A'
   305     0673  3447               	retlw	71	;'G'
   306     0674  3455               	retlw	85	;'U'
   307     0675  3441               	retlw	65	;'A'
   308     0676  3400               	retlw	0
   309     0677                     STR_10:
   310     0677  344E               	retlw	78	;'N'
   311     0678  3449               	retlw	73	;'I'
   312     0679  3456               	retlw	86	;'V'
   313     067A  3445               	retlw	69	;'E'
   314     067B  344C               	retlw	76	;'L'
   315     067C  343A               	retlw	58	;':'
   316     067D  3420               	retlw	32	;' '
   317     067E  3442               	retlw	66	;'B'
   318     067F  3441               	retlw	65	;'A'
   319     0680  3449               	retlw	73	;'I'
   320     0681  3458               	retlw	88	;'X'
   321     0682  344F               	retlw	79	;'O'
   322     0683  3400               	retlw	0
   323     0684                     STR_9:
   324     0684  344E               	retlw	78	;'N'
   325     0685  3449               	retlw	73	;'I'
   326     0686  3456               	retlw	86	;'V'
   327     0687  3445               	retlw	69	;'E'
   328     0688  344C               	retlw	76	;'L'
   329     0689  343A               	retlw	58	;':'
   330     068A  3420               	retlw	32	;' '
   331     068B  3441               	retlw	65	;'A'
   332     068C  344C               	retlw	76	;'L'
   333     068D  3454               	retlw	84	;'T'
   334     068E  344F               	retlw	79	;'O'
   335     068F  3400               	retlw	0
   336     0690                     STR_5:
   337     0690  3441               	retlw	65	;'A'
   338     0691  3442               	retlw	66	;'B'
   339     0692  3445               	retlw	69	;'E'
   340     0693  3452               	retlw	82	;'R'
   341     0694  3454               	retlw	84	;'T'
   342     0695  344F               	retlw	79	;'O'
   343     0696  3400               	retlw	0
   344     068B                     
   345                           	psect	cinit
   346     0011                     start_initialization:	
   347                           ; #config settings
   348                           
   349     0011                     __initialization:
   350                           
   351                           ; Clear objects allocated to COMMON
   352     0011  01F5               	clrf	__pbssCOMMON& (0+127)
   353     0012  01F6               	clrf	(__pbssCOMMON+1)& (0+127)
   354     0013  01F7               	clrf	(__pbssCOMMON+2)& (0+127)
   355     0014  01F8               	clrf	(__pbssCOMMON+3)& (0+127)
   356                           
   357                           ; Clear objects allocated to BANK0
   358     0015  1283               	bcf	3,5	;RP0=0, select bank0
   359     0016  1303               	bcf	3,6	;RP1=0, select bank0
   360     0017  01AD               	clrf	__pbssBANK0& (0+127)
   361     0018  01AE               	clrf	(__pbssBANK0+1)& (0+127)
   362     0019  01AF               	clrf	(__pbssBANK0+2)& (0+127)
   363     001A  01B0               	clrf	(__pbssBANK0+3)& (0+127)
   364     001B  01B1               	clrf	(__pbssBANK0+4)& (0+127)
   365     001C  01B2               	clrf	(__pbssBANK0+5)& (0+127)
   366     001D  01B3               	clrf	(__pbssBANK0+6)& (0+127)
   367     001E  01B4               	clrf	(__pbssBANK0+7)& (0+127)
   368     001F  01B5               	clrf	(__pbssBANK0+8)& (0+127)
   369     0020  01B6               	clrf	(__pbssBANK0+9)& (0+127)
   370     0021                     end_of_initialization:	
   371                           ;End of C runtime variable initialization code
   372                           
   373     0021                     __end_of__initialization:
   374     0021  0183               	clrf	3
   375     0022  120A  118A  2B4C   	ljmp	_main	;jump to C main() function
   376                           
   377                           	psect	bssCOMMON
   378     0075                     __pbssCOMMON:
   379     0075                     _paradas:
   380     0075                     	ds	2
   381     0077                     _conta:
   382     0077                     	ds	2
   383                           
   384                           	psect	bssBANK0
   385     002D                     __pbssBANK0:
   386     002D                     _SA:
   387     002D                     	ds	2
   388     002F                     _SE:
   389     002F                     	ds	2
   390     0031                     _SP:
   391     0031                     	ds	2
   392     0033                     _B:
   393     0033                     	ds	2
   394     0035                     _valor:
   395     0035                     	ds	2
   396                           
   397                           	psect	cstackCOMMON
   398     0070                     __pcstackCOMMON:
   399     0070                     ?_TrataInt:
   400     0070                     ??_TrataInt:	
   401                           ; 1 bytes @ 0x0
   402                           
   403     0070                     ?_Lcd_Port:	
   404                           ; 1 bytes @ 0x0
   405                           
   406     0070                     ?_Lcd_Cmd:	
   407                           ; 1 bytes @ 0x0
   408                           
   409     0070                     ?_Lcd_Clear:	
   410                           ; 1 bytes @ 0x0
   411                           
   412     0070                     ?_Lcd_Init:	
   413                           ; 1 bytes @ 0x0
   414                           
   415     0070                     ?_Lcd_Write_Char:	
   416                           ; 1 bytes @ 0x0
   417                           
   418     0070                     ?_Lcd_Write_String:	
   419                           ; 1 bytes @ 0x0
   420                           
   421     0070                     ?_main:	
   422                           ; 1 bytes @ 0x0
   423                           
   424                           
   425                           ; 2 bytes @ 0x0
   426     0070                     	ds	5
   427     0075                     ??_Lcd_Port:
   428     0075                     ??_Lcd_Clear:	
   429                           ; 1 bytes @ 0x5
   430                           
   431     0075                     ??_Lcd_Write_String:	
   432                           ; 1 bytes @ 0x5
   433                           
   434                           
   435                           	psect	cstackBANK0
   436     0020                     __pcstackBANK0:	
   437                           ; 1 bytes @ 0x5
   438                           
   439     0020                     Lcd_Port@a:
   440                           
   441                           ; 1 bytes @ 0x0
   442     0020                     	ds	1
   443     0021                     ??_Lcd_Cmd:
   444     0021                     ??_Lcd_Write_Char:	
   445                           ; 1 bytes @ 0x1
   446                           
   447                           
   448                           ; 1 bytes @ 0x1
   449     0021                     	ds	1
   450     0022                     Lcd_Write_Char@temp:
   451                           
   452                           ; 1 bytes @ 0x2
   453     0022                     	ds	1
   454     0023                     Lcd_Cmd@a:
   455     0023                     Lcd_Write_Char@y:	
   456                           ; 1 bytes @ 0x3
   457                           
   458                           
   459                           ; 1 bytes @ 0x3
   460     0023                     	ds	1
   461     0024                     ?_Lcd_Set_Cursor:
   462     0024                     ??_Lcd_Init:	
   463                           ; 1 bytes @ 0x4
   464                           
   465     0024                     Lcd_Set_Cursor@b:	
   466                           ; 1 bytes @ 0x4
   467                           
   468     0024                     Lcd_Write_Char@a:	
   469                           ; 1 bytes @ 0x4
   470                           
   471                           
   472                           ; 1 bytes @ 0x4
   473     0024                     	ds	1
   474     0025                     ??_Lcd_Set_Cursor:
   475     0025                     Lcd_Write_String@i:	
   476                           ; 1 bytes @ 0x5
   477                           
   478                           
   479                           ; 2 bytes @ 0x5
   480     0025                     	ds	1
   481     0026                     Lcd_Set_Cursor@a:
   482                           
   483                           ; 1 bytes @ 0x6
   484     0026                     	ds	1
   485     0027                     Lcd_Set_Cursor@z:
   486     0027                     Lcd_Write_String@a:	
   487                           ; 1 bytes @ 0x7
   488                           
   489                           
   490                           ; 1 bytes @ 0x7
   491     0027                     	ds	1
   492     0028                     Lcd_Set_Cursor@y:
   493                           
   494                           ; 1 bytes @ 0x8
   495     0028                     	ds	1
   496     0029                     Lcd_Set_Cursor@temp:
   497                           
   498                           ; 1 bytes @ 0x9
   499     0029                     	ds	1
   500     002A                     ??_main:
   501                           
   502                           ; 1 bytes @ 0xA
   503     002A                     	ds	3
   504                           
   505                           	psect	maintext
   506     034C                     __pmaintext:	
   507 ;;
   508 ;;Main: autosize = 0, tempsize = 3, incstack = 0, save=0
   509 ;;
   510 ;; *************** function _main *****************
   511 ;; Defined at:
   512 ;;		line 208 in file "main.c"
   513 ;; Parameters:    Size  Location     Type
   514 ;;		None
   515 ;; Auto vars:     Size  Location     Type
   516 ;;  i               2    0        int 
   517 ;;  botao_precio    2    0        int 
   518 ;; Return value:  Size  Location     Type
   519 ;;                  2  141[None  ] int 
   520 ;; Registers used:
   521 ;;		wreg, fsr0l, fsr0h, status,2, status,0, btemp+1, pclath, cstack
   522 ;; Tracked objects:
   523 ;;		On entry : B00/0
   524 ;;		On exit  : 0/0
   525 ;;		Unchanged: 0/0
   526 ;; Data sizes:     COMMON   BANK0   BANK1   BANK3   BANK2
   527 ;;      Params:         0       0       0       0       0
   528 ;;      Locals:         0       0       0       0       0
   529 ;;      Temps:          0       3       0       0       0
   530 ;;      Totals:         0       3       0       0       0
   531 ;;Total ram usage:        3 bytes
   532 ;; Hardware stack levels required when called: 4
   533 ;; This function calls:
   534 ;;		_Lcd_Clear
   535 ;;		_Lcd_Init
   536 ;;		_Lcd_Set_Cursor
   537 ;;		_Lcd_Write_String
   538 ;; This function is called by:
   539 ;;		Startup code after reset
   540 ;; This function uses a non-reentrant model
   541 ;;
   542                           
   543     034C                     _main:	
   544                           ;psect for function _main
   545                           
   546     034C                     l1905:	
   547                           ;incstack = 0
   548                           ; Regs used in _main: [wreg-fsr0h+status,2+status,0+btemp+1+pclath+cstack]
   549                           
   550                           
   551                           ;main.c: 211:     OPTION_REGbits.nRBPU = 0;
   552     034C  1683               	bsf	3,5	;RP0=1, select bank1
   553     034D  1303               	bcf	3,6	;RP1=0, select bank1
   554     034E  1381               	bcf	1,7	;volatile
   555     034F                     l1907:
   556                           
   557                           ;main.c: 213:     TRISB = 0b0001111;
   558     034F  300F               	movlw	15
   559     0350  0086               	movwf	6	;volatile
   560     0351                     l1909:
   561                           
   562                           ;main.c: 214:     TRISC = 0b0000000;
   563     0351  0187               	clrf	7	;volatile
   564     0352                     l1911:
   565                           
   566                           ;main.c: 215:     TRISA = 0b11111111;
   567     0352  30FF               	movlw	255
   568     0353  0085               	movwf	5	;volatile
   569                           
   570                           ;main.c: 216:     TRISD = 0x00;
   571     0354  0188               	clrf	8	;volatile
   572     0355                     l1913:
   573                           
   574                           ;main.c: 219:     PORTCbits.RC4 = 0;
   575     0355  1283               	bcf	3,5	;RP0=0, select bank0
   576     0356  1303               	bcf	3,6	;RP1=0, select bank0
   577     0357  1207               	bcf	7,4	;volatile
   578     0358                     l1915:
   579                           
   580                           ;main.c: 220:     _delay((unsigned long)((50)*(4000000/4000.0)));
   581     0358  3041               	movlw	65
   582     0359  1283               	bcf	3,5	;RP0=0, select bank0
   583     035A  1303               	bcf	3,6	;RP1=0, select bank0
   584     035B  00AB               	movwf	??_main+1
   585     035C  30ED               	movlw	237
   586     035D  00AA               	movwf	??_main
   587     035E                     u1247:
   588     035E  0BAA               	decfsz	??_main,f
   589     035F  2B5E               	goto	u1247
   590     0360  0BAB               	decfsz	??_main+1,f
   591     0361  2B5E               	goto	u1247
   592     0362  2B63               	nop2
   593     0363                     l1917:
   594                           
   595                           ;main.c: 221:     PORTCbits.RC1 = 0;
   596     0363  1283               	bcf	3,5	;RP0=0, select bank0
   597     0364  1303               	bcf	3,6	;RP1=0, select bank0
   598     0365  1087               	bcf	7,1	;volatile
   599     0366                     l1919:
   600                           
   601                           ;main.c: 222:     _delay((unsigned long)((50)*(4000000/4000.0)));
   602     0366  3041               	movlw	65
   603     0367  1283               	bcf	3,5	;RP0=0, select bank0
   604     0368  1303               	bcf	3,6	;RP1=0, select bank0
   605     0369  00AB               	movwf	??_main+1
   606     036A  30ED               	movlw	237
   607     036B  00AA               	movwf	??_main
   608     036C                     u1257:
   609     036C  0BAA               	decfsz	??_main,f
   610     036D  2B6C               	goto	u1257
   611     036E  0BAB               	decfsz	??_main+1,f
   612     036F  2B6C               	goto	u1257
   613     0370  2B71               	nop2
   614     0371                     l1921:
   615                           
   616                           ;main.c: 223:     PORTCbits.RC2 = 0;
   617     0371  1283               	bcf	3,5	;RP0=0, select bank0
   618     0372  1303               	bcf	3,6	;RP1=0, select bank0
   619     0373  1107               	bcf	7,2	;volatile
   620     0374                     l1923:
   621                           
   622                           ;main.c: 224:     _delay((unsigned long)((50)*(4000000/4000.0)));
   623     0374  3041               	movlw	65
   624     0375  1283               	bcf	3,5	;RP0=0, select bank0
   625     0376  1303               	bcf	3,6	;RP1=0, select bank0
   626     0377  00AB               	movwf	??_main+1
   627     0378  30ED               	movlw	237
   628     0379  00AA               	movwf	??_main
   629     037A                     u1267:
   630     037A  0BAA               	decfsz	??_main,f
   631     037B  2B7A               	goto	u1267
   632     037C  0BAB               	decfsz	??_main+1,f
   633     037D  2B7A               	goto	u1267
   634     037E  2B7F               	nop2
   635     037F                     l1925:
   636                           
   637                           ;main.c: 225:     PORTCbits.RC3 = 0;
   638     037F  1283               	bcf	3,5	;RP0=0, select bank0
   639     0380  1303               	bcf	3,6	;RP1=0, select bank0
   640     0381  1187               	bcf	7,3	;volatile
   641     0382                     l1927:
   642                           
   643                           ;main.c: 226:     _delay((unsigned long)((50)*(4000000/4000.0)));
   644     0382  3041               	movlw	65
   645     0383  1283               	bcf	3,5	;RP0=0, select bank0
   646     0384  1303               	bcf	3,6	;RP1=0, select bank0
   647     0385  00AB               	movwf	??_main+1
   648     0386  30ED               	movlw	237
   649     0387  00AA               	movwf	??_main
   650     0388                     u1277:
   651     0388  0BAA               	decfsz	??_main,f
   652     0389  2B88               	goto	u1277
   653     038A  0BAB               	decfsz	??_main+1,f
   654     038B  2B88               	goto	u1277
   655     038C  2B8D               	nop2
   656     038D                     l1929:
   657                           
   658                           ;main.c: 227:     PORTCbits.RC0 = 0;
   659     038D  1283               	bcf	3,5	;RP0=0, select bank0
   660     038E  1303               	bcf	3,6	;RP1=0, select bank0
   661     038F  1007               	bcf	7,0	;volatile
   662     0390                     l1931:
   663                           
   664                           ;main.c: 228:     _delay((unsigned long)((50)*(4000000/4000.0)));
   665     0390  3041               	movlw	65
   666     0391  1283               	bcf	3,5	;RP0=0, select bank0
   667     0392  1303               	bcf	3,6	;RP1=0, select bank0
   668     0393  00AB               	movwf	??_main+1
   669     0394  30ED               	movlw	237
   670     0395  00AA               	movwf	??_main
   671     0396                     u1287:
   672     0396  0BAA               	decfsz	??_main,f
   673     0397  2B96               	goto	u1287
   674     0398  0BAB               	decfsz	??_main+1,f
   675     0399  2B96               	goto	u1287
   676     039A  2B9B               	nop2
   677     039B                     l1933:
   678                           
   679                           ;main.c: 229:     PORTCbits.RC5 = 0;
   680     039B  1283               	bcf	3,5	;RP0=0, select bank0
   681     039C  1303               	bcf	3,6	;RP1=0, select bank0
   682     039D  1287               	bcf	7,5	;volatile
   683     039E                     l1935:
   684                           
   685                           ;main.c: 230:     _delay((unsigned long)((50)*(4000000/4000.0)));
   686     039E  3041               	movlw	65
   687     039F  1283               	bcf	3,5	;RP0=0, select bank0
   688     03A0  1303               	bcf	3,6	;RP1=0, select bank0
   689     03A1  00AB               	movwf	??_main+1
   690     03A2  30ED               	movlw	237
   691     03A3  00AA               	movwf	??_main
   692     03A4                     u1297:
   693     03A4  0BAA               	decfsz	??_main,f
   694     03A5  2BA4               	goto	u1297
   695     03A6  0BAB               	decfsz	??_main+1,f
   696     03A7  2BA4               	goto	u1297
   697     03A8  2BA9               	nop2
   698     03A9                     l1937:
   699                           
   700                           ;main.c: 232:     Lcd_Init();
   701     03A9  120A  118A  2697  120A  118A  	fcall	_Lcd_Init
   702     03AE                     l1939:
   703                           
   704                           ;main.c: 234:     OPTION_REGbits.INTEDG = 1;
   705     03AE  1683               	bsf	3,5	;RP0=1, select bank1
   706     03AF  1303               	bcf	3,6	;RP1=0, select bank1
   707     03B0  1701               	bsf	1,6	;volatile
   708     03B1                     l1941:
   709                           
   710                           ;main.c: 236:     INTCONbits.GIE = 1;
   711     03B1  178B               	bsf	11,7	;volatile
   712     03B2                     l1943:
   713                           
   714                           ;main.c: 237:     INTCONbits.INTE = 1;
   715     03B2  160B               	bsf	11,4	;volatile
   716     03B3                     l1945:
   717                           
   718                           ;main.c: 241:     ADCON1bits.PCFG0 = 1;
   719     03B3  141F               	bsf	31,0	;volatile
   720     03B4                     l1947:
   721                           
   722                           ;main.c: 242:     ADCON1bits.PCFG1 = 0;
   723     03B4  109F               	bcf	31,1	;volatile
   724     03B5                     l1949:
   725                           
   726                           ;main.c: 243:     ADCON1bits.PCFG2 = 0;
   727     03B5  111F               	bcf	31,2	;volatile
   728     03B6                     l1951:
   729                           
   730                           ;main.c: 244:     ADCON1bits.PCFG3 = 1;
   731     03B6  159F               	bsf	31,3	;volatile
   732     03B7                     l1953:
   733                           
   734                           ;main.c: 247:     ADCON0bits.ADCS0 = 0 ;
   735     03B7  1283               	bcf	3,5	;RP0=0, select bank0
   736     03B8  1303               	bcf	3,6	;RP1=0, select bank0
   737     03B9  131F               	bcf	31,6	;volatile
   738     03BA                     l1955:
   739                           
   740                           ;main.c: 248:     ADCON0bits.ADCS1 = 0 ;
   741     03BA  139F               	bcf	31,7	;volatile
   742     03BB                     l1957:
   743                           
   744                           ;main.c: 249:     ADCON1bits.ADFM = 0 ;
   745     03BB  1683               	bsf	3,5	;RP0=1, select bank1
   746     03BC  1303               	bcf	3,6	;RP1=0, select bank1
   747     03BD  139F               	bcf	31,7	;volatile
   748     03BE                     l1959:
   749                           
   750                           ;main.c: 256:     ADRESL = 0x00;
   751     03BE  019E               	clrf	30	;volatile
   752     03BF                     l1961:
   753                           
   754                           ;main.c: 257:     ADRESH = 0x00;
   755     03BF  1283               	bcf	3,5	;RP0=0, select bank0
   756     03C0  1303               	bcf	3,6	;RP1=0, select bank0
   757     03C1  019E               	clrf	30	;volatile
   758     03C2                     l1963:
   759                           
   760                           ;main.c: 259:     ADCON0bits.ADON = 1;
   761     03C2  141F               	bsf	31,0	;volatile
   762     03C3                     l1965:
   763                           
   764                           ;main.c: 264:     INTCONbits.GIE=1;
   765     03C3  178B               	bsf	11,7	;volatile
   766     03C4                     l1967:
   767                           
   768                           ;main.c: 265:     INTCONbits.PEIE = 1;
   769     03C4  170B               	bsf	11,6	;volatile
   770     03C5                     l1969:
   771                           
   772                           ;main.c: 266:     PIE1bits.TMR1IE = 1;
   773     03C5  1683               	bsf	3,5	;RP0=1, select bank1
   774     03C6  1303               	bcf	3,6	;RP1=0, select bank1
   775     03C7  140C               	bsf	12,0	;volatile
   776     03C8                     l1971:
   777                           
   778                           ;main.c: 269:     T1CONbits.TMR1CS = 0;
   779     03C8  1283               	bcf	3,5	;RP0=0, select bank0
   780     03C9  1303               	bcf	3,6	;RP1=0, select bank0
   781     03CA  1090               	bcf	16,1	;volatile
   782     03CB                     l1973:
   783                           
   784                           ;main.c: 270:     T1CONbits.T1CKPS0 = 1;
   785     03CB  1610               	bsf	16,4	;volatile
   786     03CC                     l1975:
   787                           
   788                           ;main.c: 271:     T1CONbits.T1CKPS1 = 1;
   789     03CC  1690               	bsf	16,5	;volatile
   790     03CD                     l1977:
   791                           
   792                           ;main.c: 273:     TMR1L = 0xDC;
   793     03CD  30DC               	movlw	220
   794     03CE  008E               	movwf	14	;volatile
   795     03CF                     l1979:
   796                           
   797                           ;main.c: 274:     TMR1H = 0x0B;
   798     03CF  300B               	movlw	11
   799     03D0  008F               	movwf	15	;volatile
   800     03D1                     l1981:
   801                           
   802                           ;main.c: 276:     T1CONbits.TMR1ON = 1;
   803     03D1  1410               	bsf	16,0	;volatile
   804     03D2                     l1983:
   805     03D2                     l1985:
   806     03D2                     l1987:
   807                           
   808                           ;main.c: 283:         ADCON0bits.CHS0 = 0;
   809     03D2  1283               	bcf	3,5	;RP0=0, select bank0
   810     03D3  1303               	bcf	3,6	;RP1=0, select bank0
   811     03D4  119F               	bcf	31,3	;volatile
   812     03D5                     l1989:
   813                           
   814                           ;main.c: 284:         ADCON0bits.CHS1 = 0;
   815     03D5  121F               	bcf	31,4	;volatile
   816     03D6                     l1991:
   817                           
   818                           ;main.c: 285:         ADCON0bits.CHS2 = 0;
   819     03D6  129F               	bcf	31,5	;volatile
   820     03D7                     l1993:
   821                           
   822                           ;main.c: 286:         _delay((unsigned long)((10)*(4000000/4000000.0)));
   823     03D7  3002               	movlw	2
   824     03D8  1283               	bcf	3,5	;RP0=0, select bank0
   825     03D9  1303               	bcf	3,6	;RP1=0, select bank0
   826     03DA  00AA               	movwf	??_main
   827     03DB                     u1307:
   828     03DB  0BAA               	decfsz	??_main,f
   829     03DC  2BDB               	goto	u1307
   830     03DD  0000               	nop
   831     03DE                     l1995:
   832                           
   833                           ;main.c: 287:         ADCON0bits.GO = 1;
   834     03DE  1283               	bcf	3,5	;RP0=0, select bank0
   835     03DF  1303               	bcf	3,6	;RP1=0, select bank0
   836     03E0  151F               	bsf	31,2	;volatile
   837     03E1                     l1997:
   838                           
   839                           ;main.c: 288:         _delay((unsigned long)((10)*(4000000/4000000.0)));
   840     03E1  3002               	movlw	2
   841     03E2  1283               	bcf	3,5	;RP0=0, select bank0
   842     03E3  1303               	bcf	3,6	;RP1=0, select bank0
   843     03E4  00AA               	movwf	??_main
   844     03E5                     u1317:
   845     03E5  0BAA               	decfsz	??_main,f
   846     03E6  2BE5               	goto	u1317
   847     03E7  0000               	nop
   848     03E8                     l1999:
   849                           
   850                           ;main.c: 289:         B = ADRESH;
   851     03E8  1283               	bcf	3,5	;RP0=0, select bank0
   852     03E9  1303               	bcf	3,6	;RP1=0, select bank0
   853     03EA  081E               	movf	30,w	;volatile
   854     03EB  00AA               	movwf	??_main
   855     03EC  01AB               	clrf	??_main+1
   856     03ED  082A               	movf	??_main,w
   857     03EE  00B3               	movwf	_B
   858     03EF  082B               	movf	??_main+1,w
   859     03F0  00B4               	movwf	_B+1
   860     03F1                     l2001:
   861                           
   862                           ;main.c: 291:         ADCON0bits.CHS0 = 1;
   863     03F1  159F               	bsf	31,3	;volatile
   864     03F2                     l2003:
   865                           
   866                           ;main.c: 292:         ADCON0bits.CHS1 = 0;
   867     03F2  121F               	bcf	31,4	;volatile
   868     03F3                     l2005:
   869                           
   870                           ;main.c: 293:         ADCON0bits.CHS2 = 0;
   871     03F3  129F               	bcf	31,5	;volatile
   872     03F4                     l2007:
   873                           
   874                           ;main.c: 294:         _delay((unsigned long)((10)*(4000000/4000000.0)));
   875     03F4  3002               	movlw	2
   876     03F5  1283               	bcf	3,5	;RP0=0, select bank0
   877     03F6  1303               	bcf	3,6	;RP1=0, select bank0
   878     03F7  00AA               	movwf	??_main
   879     03F8                     u1327:
   880     03F8  0BAA               	decfsz	??_main,f
   881     03F9  2BF8               	goto	u1327
   882     03FA  0000               	nop
   883     03FB                     l2009:
   884                           
   885                           ;main.c: 295:         ADCON0bits.GO = 1;
   886     03FB  1283               	bcf	3,5	;RP0=0, select bank0
   887     03FC  1303               	bcf	3,6	;RP1=0, select bank0
   888     03FD  151F               	bsf	31,2	;volatile
   889     03FE                     l2011:
   890                           
   891                           ;main.c: 296:         _delay((unsigned long)((10)*(4000000/4000000.0)));
   892     03FE  3002               	movlw	2
   893     03FF  1283               	bcf	3,5	;RP0=0, select bank0
   894     0400  1303               	bcf	3,6	;RP1=0, select bank0
   895     0401  00AA               	movwf	??_main
   896     0402                     u1337:
   897     0402  0BAA               	decfsz	??_main,f
   898     0403  2C02               	goto	u1337
   899     0404  0000               	nop
   900     0405                     l2013:
   901                           
   902                           ;main.c: 297:         SP = ADRESH;
   903     0405  1283               	bcf	3,5	;RP0=0, select bank0
   904     0406  1303               	bcf	3,6	;RP1=0, select bank0
   905     0407  081E               	movf	30,w	;volatile
   906     0408  00AA               	movwf	??_main
   907     0409  01AB               	clrf	??_main+1
   908     040A  082A               	movf	??_main,w
   909     040B  00B1               	movwf	_SP
   910     040C  082B               	movf	??_main+1,w
   911     040D  00B2               	movwf	_SP+1
   912     040E                     l2015:
   913                           
   914                           ;main.c: 299:         ADCON0bits.CHS0 = 0;
   915     040E  119F               	bcf	31,3	;volatile
   916     040F                     l2017:
   917                           
   918                           ;main.c: 300:         ADCON0bits.CHS1 = 1;
   919     040F  161F               	bsf	31,4	;volatile
   920     0410                     l2019:
   921                           
   922                           ;main.c: 301:         ADCON0bits.CHS2 = 0;
   923     0410  129F               	bcf	31,5	;volatile
   924     0411                     l2021:
   925                           
   926                           ;main.c: 302:         _delay((unsigned long)((10)*(4000000/4000000.0)));
   927     0411  3002               	movlw	2
   928     0412  1283               	bcf	3,5	;RP0=0, select bank0
   929     0413  1303               	bcf	3,6	;RP1=0, select bank0
   930     0414  00AA               	movwf	??_main
   931     0415                     u1347:
   932     0415  0BAA               	decfsz	??_main,f
   933     0416  2C15               	goto	u1347
   934     0417  0000               	nop
   935     0418                     l2023:
   936                           
   937                           ;main.c: 303:         ADCON0bits.GO = 1;
   938     0418  1283               	bcf	3,5	;RP0=0, select bank0
   939     0419  1303               	bcf	3,6	;RP1=0, select bank0
   940     041A  151F               	bsf	31,2	;volatile
   941     041B                     l2025:
   942                           
   943                           ;main.c: 304:         _delay((unsigned long)((10)*(4000000/4000000.0)));
   944     041B  3002               	movlw	2
   945     041C  1283               	bcf	3,5	;RP0=0, select bank0
   946     041D  1303               	bcf	3,6	;RP1=0, select bank0
   947     041E  00AA               	movwf	??_main
   948     041F                     u1357:
   949     041F  0BAA               	decfsz	??_main,f
   950     0420  2C1F               	goto	u1357
   951     0421  0000               	nop
   952     0422                     l2027:
   953                           
   954                           ;main.c: 305:         SE = ADRESH;
   955     0422  1283               	bcf	3,5	;RP0=0, select bank0
   956     0423  1303               	bcf	3,6	;RP1=0, select bank0
   957     0424  081E               	movf	30,w	;volatile
   958     0425  00AA               	movwf	??_main
   959     0426  01AB               	clrf	??_main+1
   960     0427  082A               	movf	??_main,w
   961     0428  00AF               	movwf	_SE
   962     0429  082B               	movf	??_main+1,w
   963     042A  00B0               	movwf	_SE+1
   964     042B                     l2029:
   965                           
   966                           ;main.c: 307:         ADCON0bits.CHS0 = 1;
   967     042B  159F               	bsf	31,3	;volatile
   968     042C                     l2031:
   969                           
   970                           ;main.c: 308:         ADCON0bits.CHS1 = 1;
   971     042C  161F               	bsf	31,4	;volatile
   972     042D                     l2033:
   973                           
   974                           ;main.c: 309:         ADCON0bits.CHS2 = 0;
   975     042D  129F               	bcf	31,5	;volatile
   976     042E                     l2035:
   977                           
   978                           ;main.c: 310:         _delay((unsigned long)((10)*(4000000/4000000.0)));
   979     042E  3002               	movlw	2
   980     042F  1283               	bcf	3,5	;RP0=0, select bank0
   981     0430  1303               	bcf	3,6	;RP1=0, select bank0
   982     0431  00AA               	movwf	??_main
   983     0432                     u1367:
   984     0432  0BAA               	decfsz	??_main,f
   985     0433  2C32               	goto	u1367
   986     0434  0000               	nop
   987     0435                     l2037:
   988                           
   989                           ;main.c: 312:         ADCON0bits.GO = 1;
   990     0435  1283               	bcf	3,5	;RP0=0, select bank0
   991     0436  1303               	bcf	3,6	;RP1=0, select bank0
   992     0437  151F               	bsf	31,2	;volatile
   993     0438                     l2039:
   994                           
   995                           ;main.c: 313:         _delay((unsigned long)((10)*(4000000/4000000.0)));
   996     0438  3002               	movlw	2
   997     0439  1283               	bcf	3,5	;RP0=0, select bank0
   998     043A  1303               	bcf	3,6	;RP1=0, select bank0
   999     043B  00AA               	movwf	??_main
  1000     043C                     u1377:
  1001     043C  0BAA               	decfsz	??_main,f
  1002     043D  2C3C               	goto	u1377
  1003     043E  0000               	nop
  1004     043F                     l2041:
  1005                           
  1006                           ;main.c: 314:         SA = ADRESH;
  1007     043F  1283               	bcf	3,5	;RP0=0, select bank0
  1008     0440  1303               	bcf	3,6	;RP1=0, select bank0
  1009     0441  081E               	movf	30,w	;volatile
  1010     0442  00AA               	movwf	??_main
  1011     0443  01AB               	clrf	??_main+1
  1012     0444  082A               	movf	??_main,w
  1013     0445  00AD               	movwf	_SA
  1014     0446  082B               	movf	??_main+1,w
  1015     0447  00AE               	movwf	_SA+1
  1016     0448                     l2043:
  1017                           
  1018                           ;main.c: 316:         if(PORTBbits.RB2 == 0)
  1019     0448  1906               	btfsc	6,2	;volatile
  1020     0449  2C4B               	goto	u1091
  1021     044A  2C4C               	goto	u1090
  1022     044B                     u1091:
  1023     044B  2C50               	goto	l2047
  1024     044C                     u1090:
  1025     044C                     l2045:
  1026                           
  1027                           ;main.c: 317:         {;main.c: 323:             valor = 1;
  1028     044C  3001               	movlw	1
  1029     044D  00B5               	movwf	_valor
  1030     044E  3000               	movlw	0
  1031     044F  00B6               	movwf	_valor+1
  1032     0450                     l2047:
  1033                           
  1034                           ;main.c: 330:         if (B != 127)
  1035     0450  307F               	movlw	127
  1036     0451  0633               	xorwf	_B,w
  1037     0452  0434               	iorwf	_B+1,w
  1038     0453  1903               	btfsc	3,2
  1039     0454  2C56               	goto	u1101
  1040     0455  2C57               	goto	u1100
  1041     0456                     u1101:
  1042     0456  2CC6               	goto	l2071
  1043     0457                     u1100:
  1044     0457                     l2049:
  1045                           
  1046                           ;main.c: 331:         {;main.c: 332:                 Lcd_Clear();
  1047     0457  120A  118A  27E4  120A  118A  	fcall	_Lcd_Clear
  1048                           
  1049                           ;main.c: 333:                 Lcd_Set_Cursor(1,1);
  1050     045C  1283               	bcf	3,5	;RP0=0, select bank0
  1051     045D  1303               	bcf	3,6	;RP1=0, select bank0
  1052     045E  01A4               	clrf	Lcd_Set_Cursor@b
  1053     045F  0AA4               	incf	Lcd_Set_Cursor@b,f
  1054     0460  3001               	movlw	1
  1055     0461  120A  118A  26FA  120A  118A  	fcall	_Lcd_Set_Cursor
  1056     0466                     l2051:
  1057                           
  1058                           ;main.c: 334:                 Lcd_Write_String("PESO DO MOINHO");
  1059     0466  3038               	movlw	(low ((STR_1-__stringbase)| (0+32768)))& (0+255)
  1060     0467  120A  118A  277F  120A  118A  	fcall	_Lcd_Write_String
  1061     046C                     l2053:
  1062                           
  1063                           ;main.c: 335:                 _delay((unsigned long)((100)*(4000000/4000.0)));
  1064     046C  3082               	movlw	130
  1065     046D  1283               	bcf	3,5	;RP0=0, select bank0
  1066     046E  1303               	bcf	3,6	;RP1=0, select bank0
  1067     046F  00AB               	movwf	??_main+1
  1068     0470  30DD               	movlw	221
  1069     0471  00AA               	movwf	??_main
  1070     0472                     u1387:
  1071     0472  0BAA               	decfsz	??_main,f
  1072     0473  2C72               	goto	u1387
  1073     0474  0BAB               	decfsz	??_main+1,f
  1074     0475  2C72               	goto	u1387
  1075     0476                     l2055:
  1076                           
  1077                           ;main.c: 336:             if(B > 127){
  1078     0476  1283               	bcf	3,5	;RP0=0, select bank0
  1079     0477  1303               	bcf	3,6	;RP1=0, select bank0
  1080     0478  0834               	movf	_B+1,w
  1081     0479  3A80               	xorlw	128
  1082     047A  00FF               	movwf	btemp+1
  1083     047B  3080               	movlw	128
  1084     047C  027F               	subwf	btemp+1,w
  1085     047D  1D03               	skipz
  1086     047E  2C81               	goto	u1115
  1087     047F  3080               	movlw	128
  1088     0480  0233               	subwf	_B,w
  1089     0481                     u1115:
  1090     0481  1C03               	skipc
  1091     0482  2C84               	goto	u1111
  1092     0483  2C85               	goto	u1110
  1093     0484                     u1111:
  1094     0484  2CA4               	goto	l2063
  1095     0485                     u1110:
  1096     0485                     l2057:
  1097                           
  1098                           ;main.c: 337:                     Lcd_Set_Cursor(2,1);
  1099     0485  1283               	bcf	3,5	;RP0=0, select bank0
  1100     0486  1303               	bcf	3,6	;RP1=0, select bank0
  1101     0487  01A4               	clrf	Lcd_Set_Cursor@b
  1102     0488  0AA4               	incf	Lcd_Set_Cursor@b,f
  1103     0489  3002               	movlw	2
  1104     048A  120A  118A  26FA  120A  118A  	fcall	_Lcd_Set_Cursor
  1105     048F                     l2059:
  1106                           
  1107                           ;main.c: 338:                     Lcd_Write_String("ALTO");
  1108     048F  3069               	movlw	(low (((STR_9+7)-__stringbase)| (0+32768)))& (0+255)
  1109     0490  120A  118A  277F  120A  118A  	fcall	_Lcd_Write_String
  1110     0495                     l2061:
  1111                           
  1112                           ;main.c: 339:                     _delay((unsigned long)((1000)*(4000000/4000.0)));
  1113     0495  3006               	movlw	6
  1114     0496  1283               	bcf	3,5	;RP0=0, select bank0
  1115     0497  1303               	bcf	3,6	;RP1=0, select bank0
  1116     0498  00AC               	movwf	??_main+2
  1117     0499  3013               	movlw	19
  1118     049A  00AB               	movwf	??_main+1
  1119     049B  30AD               	movlw	173
  1120     049C  00AA               	movwf	??_main
  1121     049D                     u1397:
  1122     049D  0BAA               	decfsz	??_main,f
  1123     049E  2C9D               	goto	u1397
  1124     049F  0BAB               	decfsz	??_main+1,f
  1125     04A0  2C9D               	goto	u1397
  1126     04A1  0BAC               	decfsz	??_main+2,f
  1127     04A2  2C9D               	goto	u1397
  1128                           
  1129                           ;main.c: 341:             }
  1130     04A3  2CC4               	goto	l146
  1131     04A4                     l2063:
  1132     04A4  1283               	bcf	3,5	;RP0=0, select bank0
  1133     04A5  1303               	bcf	3,6	;RP1=0, select bank0
  1134     04A6  0834               	movf	_B+1,w
  1135     04A7  3A80               	xorlw	128
  1136     04A8  00FF               	movwf	btemp+1
  1137     04A9  3080               	movlw	128
  1138     04AA  027F               	subwf	btemp+1,w
  1139     04AB  1D03               	skipz
  1140     04AC  2CAF               	goto	u1125
  1141     04AD  307F               	movlw	127
  1142     04AE  0233               	subwf	_B,w
  1143     04AF                     u1125:
  1144     04AF  1803               	skipnc
  1145     04B0  2CB2               	goto	u1121
  1146     04B1  2CB3               	goto	u1120
  1147     04B2                     u1121:
  1148     04B2  2CC4               	goto	l146
  1149     04B3                     u1120:
  1150     04B3                     l2065:
  1151                           
  1152                           ;main.c: 343:             {;main.c: 344:                     Lcd_Set_Cursor(2,1);
  1153     04B3  1283               	bcf	3,5	;RP0=0, select bank0
  1154     04B4  1303               	bcf	3,6	;RP1=0, select bank0
  1155     04B5  01A4               	clrf	Lcd_Set_Cursor@b
  1156     04B6  0AA4               	incf	Lcd_Set_Cursor@b,f
  1157     04B7  3002               	movlw	2
  1158     04B8  120A  118A  26FA  120A  118A  	fcall	_Lcd_Set_Cursor
  1159     04BD                     l2067:
  1160                           
  1161                           ;main.c: 345:                     Lcd_Write_String("BAIXO");
  1162     04BD  305C               	movlw	(low (((STR_10+7)-__stringbase)| (0+32768)))& (0+255)
  1163     04BE  120A  118A  277F  120A  118A  	fcall	_Lcd_Write_String
  1164     04C3  2C95               	goto	l2061
  1165     04C4                     l146:
  1166     04C4  0064               	clrwdt	;# 
  1167                           
  1168                           ;main.c: 350:         }
  1169     04C5  2CD2               	goto	l2075
  1170     04C6                     l2071:
  1171     04C6  307F               	movlw	127
  1172     04C7  0633               	xorwf	_B,w
  1173     04C8  0434               	iorwf	_B+1,w
  1174     04C9  1D03               	btfss	3,2
  1175     04CA  2CCC               	goto	u1131
  1176     04CB  2CCD               	goto	u1130
  1177     04CC                     u1131:
  1178     04CC  2CD2               	goto	l2075
  1179     04CD                     u1130:
  1180     04CD                     l2073:
  1181                           
  1182                           ;main.c: 352:         {;main.c: 353:             Lcd_Clear();
  1183     04CD  120A  118A  27E4  120A  118A  	fcall	_Lcd_Clear
  1184     04D2                     l2075:
  1185                           
  1186                           ;main.c: 356:         if(SP != 127)
  1187     04D2  307F               	movlw	127
  1188     04D3  1283               	bcf	3,5	;RP0=0, select bank0
  1189     04D4  1303               	bcf	3,6	;RP1=0, select bank0
  1190     04D5  0631               	xorwf	_SP,w
  1191     04D6  0432               	iorwf	_SP+1,w
  1192     04D7  1903               	btfsc	3,2
  1193     04D8  2CDA               	goto	u1141
  1194     04D9  2CDB               	goto	u1140
  1195     04DA                     u1141:
  1196     04DA  2D1E               	goto	l2087
  1197     04DB                     u1140:
  1198     04DB                     l2077:
  1199                           
  1200                           ;main.c: 357:         {;main.c: 358:                 Lcd_Clear();
  1201     04DB  120A  118A  27E4  120A  118A  	fcall	_Lcd_Clear
  1202                           
  1203                           ;main.c: 359:                 Lcd_Set_Cursor(1,1);
  1204     04E0  1283               	bcf	3,5	;RP0=0, select bank0
  1205     04E1  1303               	bcf	3,6	;RP1=0, select bank0
  1206     04E2  01A4               	clrf	Lcd_Set_Cursor@b
  1207     04E3  0AA4               	incf	Lcd_Set_Cursor@b,f
  1208     04E4  3001               	movlw	1
  1209     04E5  120A  118A  26FA  120A  118A  	fcall	_Lcd_Set_Cursor
  1210     04EA                     l2079:
  1211                           
  1212                           ;main.c: 360:                 Lcd_Write_String("ESTADO DO PORTAO");
  1213     04EA  3027               	movlw	(low ((STR_4-__stringbase)| (0+32768)))& (0+255)
  1214     04EB  120A  118A  277F  120A  118A  	fcall	_Lcd_Write_String
  1215     04F0                     l2081:
  1216                           
  1217                           ;main.c: 361:                 _delay((unsigned long)((1000)*(4000000/4000.0)));
  1218     04F0  3006               	movlw	6
  1219     04F1  1283               	bcf	3,5	;RP0=0, select bank0
  1220     04F2  1303               	bcf	3,6	;RP1=0, select bank0
  1221     04F3  00AC               	movwf	??_main+2
  1222     04F4  3013               	movlw	19
  1223     04F5  00AB               	movwf	??_main+1
  1224     04F6  30AD               	movlw	173
  1225     04F7  00AA               	movwf	??_main
  1226     04F8                     u1407:
  1227     04F8  0BAA               	decfsz	??_main,f
  1228     04F9  2CF8               	goto	u1407
  1229     04FA  0BAB               	decfsz	??_main+1,f
  1230     04FB  2CF8               	goto	u1407
  1231     04FC  0BAC               	decfsz	??_main+2,f
  1232     04FD  2CF8               	goto	u1407
  1233     04FE                     l2083:
  1234                           
  1235                           ;main.c: 362:                 Lcd_Set_Cursor(2,1);
  1236     04FE  1283               	bcf	3,5	;RP0=0, select bank0
  1237     04FF  1303               	bcf	3,6	;RP1=0, select bank0
  1238     0500  01A4               	clrf	Lcd_Set_Cursor@b
  1239     0501  0AA4               	incf	Lcd_Set_Cursor@b,f
  1240     0502  3002               	movlw	2
  1241     0503  120A  118A  26FA  120A  118A  	fcall	_Lcd_Set_Cursor
  1242     0508                     l2085:
  1243                           
  1244                           ;main.c: 363:                 Lcd_Write_String("ABERTO");
  1245     0508  306E               	movlw	(low ((STR_5-__stringbase)| (0+32768)))& (0+255)
  1246     0509  120A  118A  277F  120A  118A  	fcall	_Lcd_Write_String
  1247                           
  1248                           ;main.c: 364:                 _delay((unsigned long)((1000)*(4000000/4000.0)));
  1249     050E  3006               	movlw	6
  1250     050F  1283               	bcf	3,5	;RP0=0, select bank0
  1251     0510  1303               	bcf	3,6	;RP1=0, select bank0
  1252     0511  00AC               	movwf	??_main+2
  1253     0512  3013               	movlw	19
  1254     0513  00AB               	movwf	??_main+1
  1255     0514  30AD               	movlw	173
  1256     0515  00AA               	movwf	??_main
  1257     0516                     u1417:
  1258     0516  0BAA               	decfsz	??_main,f
  1259     0517  2D16               	goto	u1417
  1260     0518  0BAB               	decfsz	??_main+1,f
  1261     0519  2D16               	goto	u1417
  1262     051A  0BAC               	decfsz	??_main+2,f
  1263     051B  2D16               	goto	u1417
  1264     051C  0064               	clrwdt	;# 
  1265                           
  1266                           ;main.c: 366:         }
  1267     051D  2D2A               	goto	l2091
  1268     051E                     l2087:
  1269     051E  307F               	movlw	127
  1270     051F  0631               	xorwf	_SP,w
  1271     0520  0432               	iorwf	_SP+1,w
  1272     0521  1D03               	btfss	3,2
  1273     0522  2D24               	goto	u1151
  1274     0523  2D25               	goto	u1150
  1275     0524                     u1151:
  1276     0524  2D2A               	goto	l2091
  1277     0525                     u1150:
  1278     0525                     l2089:
  1279                           
  1280                           ;main.c: 368:         {;main.c: 369:             Lcd_Clear();
  1281     0525  120A  118A  27E4  120A  118A  	fcall	_Lcd_Clear
  1282     052A                     l2091:
  1283                           
  1284                           ;main.c: 372:         if(SE != 127)
  1285     052A  307F               	movlw	127
  1286     052B  1283               	bcf	3,5	;RP0=0, select bank0
  1287     052C  1303               	bcf	3,6	;RP1=0, select bank0
  1288     052D  062F               	xorwf	_SE,w
  1289     052E  0430               	iorwf	_SE+1,w
  1290     052F  1903               	btfsc	3,2
  1291     0530  2D32               	goto	u1161
  1292     0531  2D33               	goto	u1160
  1293     0532                     u1161:
  1294     0532  2D81               	goto	l2107
  1295     0533                     u1160:
  1296     0533                     l2093:
  1297                           
  1298                           ;main.c: 373:         {;main.c: 374:                 Lcd_Clear();
  1299     0533  120A  118A  27E4  120A  118A  	fcall	_Lcd_Clear
  1300                           
  1301                           ;main.c: 375:                 Lcd_Set_Cursor(1,1);
  1302     0538  1283               	bcf	3,5	;RP0=0, select bank0
  1303     0539  1303               	bcf	3,6	;RP1=0, select bank0
  1304     053A  01A4               	clrf	Lcd_Set_Cursor@b
  1305     053B  0AA4               	incf	Lcd_Set_Cursor@b,f
  1306     053C  3001               	movlw	1
  1307     053D  120A  118A  26FA  120A  118A  	fcall	_Lcd_Set_Cursor
  1308     0542                     l2095:
  1309                           
  1310                           ;main.c: 376:                 Lcd_Write_String("ESTADO DA ESCOTILHA");
  1311     0542  3001               	movlw	(low ((STR_6-__stringbase)| (0+32768)))& (0+255)
  1312     0543  120A  118A  277F  120A  118A  	fcall	_Lcd_Write_String
  1313     0548                     l2097:
  1314                           
  1315                           ;main.c: 377:                 _delay((unsigned long)((100)*(4000000/4000.0)));
  1316     0548  3082               	movlw	130
  1317     0549  1283               	bcf	3,5	;RP0=0, select bank0
  1318     054A  1303               	bcf	3,6	;RP1=0, select bank0
  1319     054B  00AB               	movwf	??_main+1
  1320     054C  30DD               	movlw	221
  1321     054D  00AA               	movwf	??_main
  1322     054E                     u1427:
  1323     054E  0BAA               	decfsz	??_main,f
  1324     054F  2D4E               	goto	u1427
  1325     0550  0BAB               	decfsz	??_main+1,f
  1326     0551  2D4E               	goto	u1427
  1327     0552                     l2099:
  1328                           
  1329                           ;main.c: 378:                 if(SE > 127){
  1330     0552  1283               	bcf	3,5	;RP0=0, select bank0
  1331     0553  1303               	bcf	3,6	;RP1=0, select bank0
  1332     0554  0830               	movf	_SE+1,w
  1333     0555  3A80               	xorlw	128
  1334     0556  00FF               	movwf	btemp+1
  1335     0557  3080               	movlw	128
  1336     0558  027F               	subwf	btemp+1,w
  1337     0559  1D03               	skipz
  1338     055A  2D5D               	goto	u1175
  1339     055B  3080               	movlw	128
  1340     055C  022F               	subwf	_SE,w
  1341     055D                     u1175:
  1342     055D  1C03               	skipc
  1343     055E  2D60               	goto	u1171
  1344     055F  2D61               	goto	u1170
  1345     0560                     u1171:
  1346     0560  2D7F               	goto	l154
  1347     0561                     u1170:
  1348     0561                     l2101:
  1349                           
  1350                           ;main.c: 381:                     Lcd_Set_Cursor(2,1);
  1351     0561  1283               	bcf	3,5	;RP0=0, select bank0
  1352     0562  1303               	bcf	3,6	;RP1=0, select bank0
  1353     0563  01A4               	clrf	Lcd_Set_Cursor@b
  1354     0564  0AA4               	incf	Lcd_Set_Cursor@b,f
  1355     0565  3002               	movlw	2
  1356     0566  120A  118A  26FA  120A  118A  	fcall	_Lcd_Set_Cursor
  1357     056B                     l2103:
  1358                           
  1359                           ;main.c: 382:                     Lcd_Write_String("ESCOTILHA: ABERTA");
  1360     056B  3015               	movlw	(low ((STR_7-__stringbase)| (0+32768)))& (0+255)
  1361     056C  120A  118A  277F  120A  118A  	fcall	_Lcd_Write_String
  1362     0571                     l2105:
  1363                           
  1364                           ;main.c: 383:                     _delay((unsigned long)((1000)*(4000000/4000.0)));
  1365     0571  3006               	movlw	6
  1366     0572  1283               	bcf	3,5	;RP0=0, select bank0
  1367     0573  1303               	bcf	3,6	;RP1=0, select bank0
  1368     0574  00AC               	movwf	??_main+2
  1369     0575  3013               	movlw	19
  1370     0576  00AB               	movwf	??_main+1
  1371     0577  30AD               	movlw	173
  1372     0578  00AA               	movwf	??_main
  1373     0579                     u1437:
  1374     0579  0BAA               	decfsz	??_main,f
  1375     057A  2D79               	goto	u1437
  1376     057B  0BAB               	decfsz	??_main+1,f
  1377     057C  2D79               	goto	u1437
  1378     057D  0BAC               	decfsz	??_main+2,f
  1379     057E  2D79               	goto	u1437
  1380     057F                     l154:	
  1381                           ;main.c: 385:                 }
  1382                           
  1383     057F  0064               	clrwdt	;# 
  1384                           
  1385                           ;main.c: 387:         }
  1386     0580  2D8D               	goto	l2111
  1387     0581                     l2107:
  1388     0581  307F               	movlw	127
  1389     0582  062F               	xorwf	_SE,w
  1390     0583  0430               	iorwf	_SE+1,w
  1391     0584  1D03               	btfss	3,2
  1392     0585  2D87               	goto	u1181
  1393     0586  2D88               	goto	u1180
  1394     0587                     u1181:
  1395     0587  2D8D               	goto	l2111
  1396     0588                     u1180:
  1397     0588                     l2109:
  1398                           
  1399                           ;main.c: 389:         {;main.c: 390:             Lcd_Clear();
  1400     0588  120A  118A  27E4  120A  118A  	fcall	_Lcd_Clear
  1401     058D                     l2111:
  1402                           
  1403                           ;main.c: 393:         if(SA != 127 && B != 127)
  1404     058D  307F               	movlw	127
  1405     058E  1283               	bcf	3,5	;RP0=0, select bank0
  1406     058F  1303               	bcf	3,6	;RP1=0, select bank0
  1407     0590  062D               	xorwf	_SA,w
  1408     0591  042E               	iorwf	_SA+1,w
  1409     0592  1903               	btfsc	3,2
  1410     0593  2D95               	goto	u1191
  1411     0594  2D96               	goto	u1190
  1412     0595                     u1191:
  1413     0595  2E0C               	goto	l2137
  1414     0596                     u1190:
  1415     0596                     l2113:
  1416     0596  307F               	movlw	127
  1417     0597  0633               	xorwf	_B,w
  1418     0598  0434               	iorwf	_B+1,w
  1419     0599  1903               	btfsc	3,2
  1420     059A  2D9C               	goto	u1201
  1421     059B  2D9D               	goto	u1200
  1422     059C                     u1201:
  1423     059C  2E0C               	goto	l2137
  1424     059D                     u1200:
  1425     059D                     l2115:
  1426                           
  1427                           ;main.c: 394:         {;main.c: 395:             Lcd_Clear();
  1428     059D  120A  118A  27E4  120A  118A  	fcall	_Lcd_Clear
  1429                           
  1430                           ;main.c: 396:             Lcd_Set_Cursor(1,1);
  1431     05A2  1283               	bcf	3,5	;RP0=0, select bank0
  1432     05A3  1303               	bcf	3,6	;RP1=0, select bank0
  1433     05A4  01A4               	clrf	Lcd_Set_Cursor@b
  1434     05A5  0AA4               	incf	Lcd_Set_Cursor@b,f
  1435     05A6  3001               	movlw	1
  1436     05A7  120A  118A  26FA  120A  118A  	fcall	_Lcd_Set_Cursor
  1437     05AC                     l2117:
  1438                           
  1439                           ;main.c: 397:             Lcd_Write_String("NIVEL DA AGUA");
  1440     05AC  3047               	movlw	(low ((STR_8-__stringbase)| (0+32768)))& (0+255)
  1441     05AD  120A  118A  277F  120A  118A  	fcall	_Lcd_Write_String
  1442     05B2                     l2119:
  1443                           
  1444                           ;main.c: 398:             _delay((unsigned long)((100)*(4000000/4000.0)));
  1445     05B2  3082               	movlw	130
  1446     05B3  1283               	bcf	3,5	;RP0=0, select bank0
  1447     05B4  1303               	bcf	3,6	;RP1=0, select bank0
  1448     05B5  00AB               	movwf	??_main+1
  1449     05B6  30DD               	movlw	221
  1450     05B7  00AA               	movwf	??_main
  1451     05B8                     u1447:
  1452     05B8  0BAA               	decfsz	??_main,f
  1453     05B9  2DB8               	goto	u1447
  1454     05BA  0BAB               	decfsz	??_main+1,f
  1455     05BB  2DB8               	goto	u1447
  1456     05BC                     l2121:
  1457                           
  1458                           ;main.c: 399:             if(SA > 127)
  1459     05BC  1283               	bcf	3,5	;RP0=0, select bank0
  1460     05BD  1303               	bcf	3,6	;RP1=0, select bank0
  1461     05BE  082E               	movf	_SA+1,w
  1462     05BF  3A80               	xorlw	128
  1463     05C0  00FF               	movwf	btemp+1
  1464     05C1  3080               	movlw	128
  1465     05C2  027F               	subwf	btemp+1,w
  1466     05C3  1D03               	skipz
  1467     05C4  2DC7               	goto	u1215
  1468     05C5  3080               	movlw	128
  1469     05C6  022D               	subwf	_SA,w
  1470     05C7                     u1215:
  1471     05C7  1C03               	skipc
  1472     05C8  2DCA               	goto	u1211
  1473     05C9  2DCB               	goto	u1210
  1474     05CA                     u1211:
  1475     05CA  2DEA               	goto	l2129
  1476     05CB                     u1210:
  1477     05CB                     l2123:
  1478                           
  1479                           ;main.c: 400:             {;main.c: 402:                 Lcd_Set_Cursor(2,1);
  1480     05CB  1283               	bcf	3,5	;RP0=0, select bank0
  1481     05CC  1303               	bcf	3,6	;RP1=0, select bank0
  1482     05CD  01A4               	clrf	Lcd_Set_Cursor@b
  1483     05CE  0AA4               	incf	Lcd_Set_Cursor@b,f
  1484     05CF  3002               	movlw	2
  1485     05D0  120A  118A  26FA  120A  118A  	fcall	_Lcd_Set_Cursor
  1486     05D5                     l2125:
  1487                           
  1488                           ;main.c: 403:                 Lcd_Write_String("NIVEL: ALTO");
  1489     05D5  3062               	movlw	(low ((STR_9-__stringbase)| (0+32768)))& (0+255)
  1490     05D6  120A  118A  277F  120A  118A  	fcall	_Lcd_Write_String
  1491     05DB                     l2127:
  1492                           
  1493                           ;main.c: 404:                 _delay((unsigned long)((1000)*(4000000/4000.0)));
  1494     05DB  3006               	movlw	6
  1495     05DC  1283               	bcf	3,5	;RP0=0, select bank0
  1496     05DD  1303               	bcf	3,6	;RP1=0, select bank0
  1497     05DE  00AC               	movwf	??_main+2
  1498     05DF  3013               	movlw	19
  1499     05E0  00AB               	movwf	??_main+1
  1500     05E1  30AD               	movlw	173
  1501     05E2  00AA               	movwf	??_main
  1502     05E3                     u1457:
  1503     05E3  0BAA               	decfsz	??_main,f
  1504     05E4  2DE3               	goto	u1457
  1505     05E5  0BAB               	decfsz	??_main+1,f
  1506     05E6  2DE3               	goto	u1457
  1507     05E7  0BAC               	decfsz	??_main+2,f
  1508     05E8  2DE3               	goto	u1457
  1509                           
  1510                           ;main.c: 405:             }
  1511     05E9  2E0A               	goto	l159
  1512     05EA                     l2129:
  1513     05EA  1283               	bcf	3,5	;RP0=0, select bank0
  1514     05EB  1303               	bcf	3,6	;RP1=0, select bank0
  1515     05EC  082E               	movf	_SA+1,w
  1516     05ED  3A80               	xorlw	128
  1517     05EE  00FF               	movwf	btemp+1
  1518     05EF  3080               	movlw	128
  1519     05F0  027F               	subwf	btemp+1,w
  1520     05F1  1D03               	skipz
  1521     05F2  2DF5               	goto	u1225
  1522     05F3  307F               	movlw	127
  1523     05F4  022D               	subwf	_SA,w
  1524     05F5                     u1225:
  1525     05F5  1803               	skipnc
  1526     05F6  2DF8               	goto	u1221
  1527     05F7  2DF9               	goto	u1220
  1528     05F8                     u1221:
  1529     05F8  2E0A               	goto	l159
  1530     05F9                     u1220:
  1531     05F9                     l2131:
  1532                           
  1533                           ;main.c: 407:             {;main.c: 408:                 Lcd_Set_Cursor(2,1);
  1534     05F9  1283               	bcf	3,5	;RP0=0, select bank0
  1535     05FA  1303               	bcf	3,6	;RP1=0, select bank0
  1536     05FB  01A4               	clrf	Lcd_Set_Cursor@b
  1537     05FC  0AA4               	incf	Lcd_Set_Cursor@b,f
  1538     05FD  3002               	movlw	2
  1539     05FE  120A  118A  26FA  120A  118A  	fcall	_Lcd_Set_Cursor
  1540     0603                     l2133:
  1541                           
  1542                           ;main.c: 409:                 Lcd_Write_String("NIVEL: BAIXO");
  1543     0603  3055               	movlw	(low ((STR_10-__stringbase)| (0+32768)))& (0+255)
  1544     0604  120A  118A  277F  120A  118A  	fcall	_Lcd_Write_String
  1545     0609  2DDB               	goto	l2127
  1546     060A                     l159:
  1547     060A  0064               	clrwdt	;# 
  1548                           
  1549                           ;main.c: 413:         }
  1550     060B  2E18               	goto	l161
  1551     060C                     l2137:
  1552     060C  307F               	movlw	127
  1553     060D  062D               	xorwf	_SA,w
  1554     060E  042E               	iorwf	_SA+1,w
  1555     060F  1D03               	btfss	3,2
  1556     0610  2E12               	goto	u1231
  1557     0611  2E13               	goto	u1230
  1558     0612                     u1231:
  1559     0612  2E18               	goto	l161
  1560     0613                     u1230:
  1561     0613                     l2139:
  1562                           
  1563                           ;main.c: 415:             Lcd_Clear();
  1564     0613  120A  118A  27E4  120A  118A  	fcall	_Lcd_Clear
  1565     0618                     l161:
  1566     0618  0064               	clrwdt	;# 
  1567     0619  2BD2               	goto	l1983
  1568     061A  120A  118A  280E   	ljmp	start
  1569     061D                     __end_of_main:
  1570                           
  1571                           	psect	text1
  1572     077F                     __ptext1:	
  1573 ;; *************** function _Lcd_Write_String *****************
  1574 ;; Defined at:
  1575 ;;		line 95 in file "./lcd.h"
  1576 ;; Parameters:    Size  Location     Type
  1577 ;;  a               1    wreg     PTR unsigned char 
  1578 ;;		 -> STR_10(13), STR_9(12), STR_8(14), STR_7(18), 
  1579 ;;		 -> STR_6(20), STR_5(7), STR_4(17), STR_3(6), 
  1580 ;;		 -> STR_2(5), STR_1(15), 
  1581 ;; Auto vars:     Size  Location     Type
  1582 ;;  a               1    7[BANK0 ] PTR unsigned char 
  1583 ;;		 -> STR_10(13), STR_9(12), STR_8(14), STR_7(18), 
  1584 ;;		 -> STR_6(20), STR_5(7), STR_4(17), STR_3(6), 
  1585 ;;		 -> STR_2(5), STR_1(15), 
  1586 ;;  i               2    5[BANK0 ] int 
  1587 ;; Return value:  Size  Location     Type
  1588 ;;                  1    wreg      void 
  1589 ;; Registers used:
  1590 ;;		wreg, fsr0l, fsr0h, status,2, status,0, pclath, cstack
  1591 ;; Tracked objects:
  1592 ;;		On entry : 0/0
  1593 ;;		On exit  : 0/0
  1594 ;;		Unchanged: 0/0
  1595 ;; Data sizes:     COMMON   BANK0   BANK1   BANK3   BANK2
  1596 ;;      Params:         0       0       0       0       0
  1597 ;;      Locals:         0       3       0       0       0
  1598 ;;      Temps:          0       0       0       0       0
  1599 ;;      Totals:         0       3       0       0       0
  1600 ;;Total ram usage:        3 bytes
  1601 ;; Hardware stack levels used: 1
  1602 ;; Hardware stack levels required when called: 3
  1603 ;; This function calls:
  1604 ;;		_Lcd_Write_Char
  1605 ;; This function is called by:
  1606 ;;		_main
  1607 ;; This function uses a non-reentrant model
  1608 ;;
  1609                           
  1610     077F                     _Lcd_Write_String:	
  1611                           ;psect for function _Lcd_Write_String
  1612                           
  1613                           
  1614                           ;incstack = 0
  1615                           ; Regs used in _Lcd_Write_String: [wreg-fsr0h+status,2+status,0+pclath+cstack]
  1616                           ;Lcd_Write_String@a stored from wreg
  1617     077F  1283               	bcf	3,5	;RP0=0, select bank0
  1618     0780  1303               	bcf	3,6	;RP1=0, select bank0
  1619     0781  00A7               	movwf	Lcd_Write_String@a
  1620     0782                     l1893:
  1621                           
  1622                           ;./lcd.h: 95: void Lcd_Write_String(char *a);./lcd.h: 96: {;./lcd.h: 97:  int i;;./lcd.h
      +                          : 98:  for(i=0;a[i]!='\0';i++)
  1623     0782  01A5               	clrf	Lcd_Write_String@i
  1624     0783  01A6               	clrf	Lcd_Write_String@i+1
  1625     0784  2F9A               	goto	l1899
  1626     0785                     l1895:
  1627                           
  1628                           ;./lcd.h: 99:     Lcd_Write_Char(a[i]);
  1629     0785  0825               	movf	Lcd_Write_String@i,w
  1630     0786  0727               	addwf	Lcd_Write_String@a,w
  1631     0787  0084               	movwf	4
  1632     0788  120A  118A  261D  120A  118A  	fcall	stringdir
  1633     078D  120A  118A  2746  120A  118A  	fcall	_Lcd_Write_Char
  1634     0792                     l1897:
  1635     0792  3001               	movlw	1
  1636     0793  1283               	bcf	3,5	;RP0=0, select bank0
  1637     0794  1303               	bcf	3,6	;RP1=0, select bank0
  1638     0795  07A5               	addwf	Lcd_Write_String@i,f
  1639     0796  1803               	skipnc
  1640     0797  0AA6               	incf	Lcd_Write_String@i+1,f
  1641     0798  3000               	movlw	0
  1642     0799  07A6               	addwf	Lcd_Write_String@i+1,f
  1643     079A                     l1899:
  1644     079A  0825               	movf	Lcd_Write_String@i,w
  1645     079B  0727               	addwf	Lcd_Write_String@a,w
  1646     079C  0084               	movwf	4
  1647     079D  120A  118A  261D  120A  118A  	fcall	stringdir
  1648     07A2  3A00               	xorlw	0
  1649     07A3  1D03               	skipz
  1650     07A4  2FA6               	goto	u1081
  1651     07A5  2FA7               	goto	u1080
  1652     07A6                     u1081:
  1653     07A6  2F85               	goto	l1895
  1654     07A7                     u1080:
  1655     07A7                     l131:
  1656     07A7  0008               	return
  1657     07A8                     __end_of_Lcd_Write_String:
  1658                           
  1659                           	psect	text2
  1660     0746                     __ptext2:	
  1661 ;; *************** function _Lcd_Write_Char *****************
  1662 ;; Defined at:
  1663 ;;		line 79 in file "./lcd.h"
  1664 ;; Parameters:    Size  Location     Type
  1665 ;;  a               1    wreg     unsigned char 
  1666 ;; Auto vars:     Size  Location     Type
  1667 ;;  a               1    4[BANK0 ] unsigned char 
  1668 ;;  y               1    3[BANK0 ] unsigned char 
  1669 ;;  temp            1    2[BANK0 ] unsigned char 
  1670 ;; Return value:  Size  Location     Type
  1671 ;;                  1    wreg      void 
  1672 ;; Registers used:
  1673 ;;		wreg, status,2, status,0, pclath, cstack
  1674 ;; Tracked objects:
  1675 ;;		On entry : 0/0
  1676 ;;		On exit  : 0/0
  1677 ;;		Unchanged: 0/0
  1678 ;; Data sizes:     COMMON   BANK0   BANK1   BANK3   BANK2
  1679 ;;      Params:         0       0       0       0       0
  1680 ;;      Locals:         0       3       0       0       0
  1681 ;;      Temps:          0       1       0       0       0
  1682 ;;      Totals:         0       4       0       0       0
  1683 ;;Total ram usage:        4 bytes
  1684 ;; Hardware stack levels used: 1
  1685 ;; Hardware stack levels required when called: 2
  1686 ;; This function calls:
  1687 ;;		_Lcd_Port
  1688 ;; This function is called by:
  1689 ;;		_Lcd_Write_String
  1690 ;; This function uses a non-reentrant model
  1691 ;;
  1692                           
  1693     0746                     _Lcd_Write_Char:	
  1694                           ;psect for function _Lcd_Write_Char
  1695                           
  1696                           
  1697                           ;incstack = 0
  1698                           ; Regs used in _Lcd_Write_Char: [wreg+status,2+status,0+pclath+cstack]
  1699                           ;Lcd_Write_Char@a stored from wreg
  1700     0746  1283               	bcf	3,5	;RP0=0, select bank0
  1701     0747  1303               	bcf	3,6	;RP1=0, select bank0
  1702     0748  00A4               	movwf	Lcd_Write_Char@a
  1703     0749                     l1841:
  1704                           
  1705                           ;./lcd.h: 79: void Lcd_Write_Char(char a);./lcd.h: 80: {;./lcd.h: 81:    char temp,y;;./
      +                          lcd.h: 82:    temp = a&0x0F;
  1706     0749  0824               	movf	Lcd_Write_Char@a,w
  1707     074A  390F               	andlw	15
  1708     074B  00A2               	movwf	Lcd_Write_Char@temp
  1709                           
  1710                           ;./lcd.h: 83:    y = a&0xF0;
  1711     074C  0824               	movf	Lcd_Write_Char@a,w
  1712     074D  39F0               	andlw	240
  1713     074E  00A3               	movwf	Lcd_Write_Char@y
  1714     074F                     l1843:
  1715                           
  1716                           ;./lcd.h: 84:    RD2 = 1;
  1717     074F  1508               	bsf	8,2	;volatile
  1718     0750                     l1845:
  1719                           
  1720                           ;./lcd.h: 85:    Lcd_Port(y>>4);
  1721     0750  0823               	movf	Lcd_Write_Char@y,w
  1722     0751  00A1               	movwf	??_Lcd_Write_Char
  1723     0752  3004               	movlw	4
  1724     0753                     u1035:
  1725     0753  1003               	clrc
  1726     0754  0CA1               	rrf	??_Lcd_Write_Char,f
  1727     0755  3EFF               	addlw	-1
  1728     0756  1D03               	skipz
  1729     0757  2F53               	goto	u1035
  1730     0758  0821               	movf	??_Lcd_Write_Char,w
  1731     0759  120A  118A  27A8  120A  118A  	fcall	_Lcd_Port
  1732     075E                     l1847:
  1733                           
  1734                           ;./lcd.h: 86:    RD3 = 1;
  1735     075E  1283               	bcf	3,5	;RP0=0, select bank0
  1736     075F  1303               	bcf	3,6	;RP1=0, select bank0
  1737     0760  1588               	bsf	8,3	;volatile
  1738     0761                     l1849:
  1739                           
  1740                           ;./lcd.h: 87:    _delay((unsigned long)((40)*(4000000/4000000.0)));
  1741     0761  300C               	movlw	12
  1742     0762  1283               	bcf	3,5	;RP0=0, select bank0
  1743     0763  1303               	bcf	3,6	;RP1=0, select bank0
  1744     0764  00A1               	movwf	??_Lcd_Write_Char
  1745     0765                     u1467:
  1746     0765  0BA1               	decfsz	??_Lcd_Write_Char,f
  1747     0766  2F65               	goto	u1467
  1748     0767  0000               	nop
  1749     0768                     l1851:
  1750                           
  1751                           ;./lcd.h: 88:    RD3 = 0;
  1752     0768  1283               	bcf	3,5	;RP0=0, select bank0
  1753     0769  1303               	bcf	3,6	;RP1=0, select bank0
  1754     076A  1188               	bcf	8,3	;volatile
  1755     076B                     l1853:
  1756                           
  1757                           ;./lcd.h: 89:    Lcd_Port(temp);
  1758     076B  0822               	movf	Lcd_Write_Char@temp,w
  1759     076C  120A  118A  27A8  120A  118A  	fcall	_Lcd_Port
  1760     0771                     l1855:
  1761                           
  1762                           ;./lcd.h: 90:    RD3 = 1;
  1763     0771  1283               	bcf	3,5	;RP0=0, select bank0
  1764     0772  1303               	bcf	3,6	;RP1=0, select bank0
  1765     0773  1588               	bsf	8,3	;volatile
  1766     0774                     l1857:
  1767                           
  1768                           ;./lcd.h: 91:    _delay((unsigned long)((40)*(4000000/4000000.0)));
  1769     0774  300C               	movlw	12
  1770     0775  1283               	bcf	3,5	;RP0=0, select bank0
  1771     0776  1303               	bcf	3,6	;RP1=0, select bank0
  1772     0777  00A1               	movwf	??_Lcd_Write_Char
  1773     0778                     u1477:
  1774     0778  0BA1               	decfsz	??_Lcd_Write_Char,f
  1775     0779  2F78               	goto	u1477
  1776     077A  0000               	nop
  1777     077B                     l1859:
  1778                           
  1779                           ;./lcd.h: 92:    RD3 = 0;
  1780     077B  1283               	bcf	3,5	;RP0=0, select bank0
  1781     077C  1303               	bcf	3,6	;RP1=0, select bank0
  1782     077D  1188               	bcf	8,3	;volatile
  1783     077E                     l125:
  1784     077E  0008               	return
  1785     077F                     __end_of_Lcd_Write_Char:
  1786                           
  1787                           	psect	text3
  1788     06FA                     __ptext3:	
  1789 ;; *************** function _Lcd_Set_Cursor *****************
  1790 ;; Defined at:
  1791 ;;		line 39 in file "./lcd.h"
  1792 ;; Parameters:    Size  Location     Type
  1793 ;;  a               1    wreg     unsigned char 
  1794 ;;  b               1    4[BANK0 ] unsigned char 
  1795 ;; Auto vars:     Size  Location     Type
  1796 ;;  a               1    6[BANK0 ] unsigned char 
  1797 ;;  temp            1    9[BANK0 ] unsigned char 
  1798 ;;  y               1    8[BANK0 ] unsigned char 
  1799 ;;  z               1    7[BANK0 ] unsigned char 
  1800 ;; Return value:  Size  Location     Type
  1801 ;;                  1    wreg      void 
  1802 ;; Registers used:
  1803 ;;		wreg, status,2, status,0, pclath, cstack
  1804 ;; Tracked objects:
  1805 ;;		On entry : 0/0
  1806 ;;		On exit  : 0/0
  1807 ;;		Unchanged: 0/0
  1808 ;; Data sizes:     COMMON   BANK0   BANK1   BANK3   BANK2
  1809 ;;      Params:         0       1       0       0       0
  1810 ;;      Locals:         0       4       0       0       0
  1811 ;;      Temps:          0       1       0       0       0
  1812 ;;      Totals:         0       6       0       0       0
  1813 ;;Total ram usage:        6 bytes
  1814 ;; Hardware stack levels used: 1
  1815 ;; Hardware stack levels required when called: 3
  1816 ;; This function calls:
  1817 ;;		_Lcd_Cmd
  1818 ;; This function is called by:
  1819 ;;		_main
  1820 ;; This function uses a non-reentrant model
  1821 ;;
  1822                           
  1823     06FA                     _Lcd_Set_Cursor:	
  1824                           ;psect for function _Lcd_Set_Cursor
  1825                           
  1826                           
  1827                           ;incstack = 0
  1828                           ; Regs used in _Lcd_Set_Cursor: [wreg+status,2+status,0+pclath+cstack]
  1829                           ;Lcd_Set_Cursor@a stored from wreg
  1830     06FA  1283               	bcf	3,5	;RP0=0, select bank0
  1831     06FB  1303               	bcf	3,6	;RP1=0, select bank0
  1832     06FC  00A6               	movwf	Lcd_Set_Cursor@a
  1833     06FD                     l1863:
  1834                           
  1835                           ;./lcd.h: 39: void Lcd_Set_Cursor(char a, char b);./lcd.h: 40: {;./lcd.h: 41:  char temp
      +                          ,z,y;;./lcd.h: 42:  if(a == 1)
  1836     06FD  0326               	decf	Lcd_Set_Cursor@a,w
  1837     06FE  1D03               	btfss	3,2
  1838     06FF  2F01               	goto	u1041
  1839     0700  2F02               	goto	u1040
  1840     0701                     u1041:
  1841     0701  2F21               	goto	l1873
  1842     0702                     u1040:
  1843     0702                     l1865:
  1844                           
  1845                           ;./lcd.h: 43:  {;./lcd.h: 44:    temp = 0x80 + b - 1;
  1846     0702  0824               	movf	Lcd_Set_Cursor@b,w
  1847     0703  3E7F               	addlw	127
  1848     0704  00A9               	movwf	Lcd_Set_Cursor@temp
  1849                           
  1850                           ;./lcd.h: 45:   z = temp>>4;
  1851     0705  0829               	movf	Lcd_Set_Cursor@temp,w
  1852     0706  00A5               	movwf	??_Lcd_Set_Cursor
  1853     0707  3004               	movlw	4
  1854     0708                     u1055:
  1855     0708  1003               	clrc
  1856     0709  0CA5               	rrf	??_Lcd_Set_Cursor,f
  1857     070A  3EFF               	addlw	-1
  1858     070B  1D03               	skipz
  1859     070C  2F08               	goto	u1055
  1860     070D  0825               	movf	??_Lcd_Set_Cursor,w
  1861     070E  00A7               	movwf	Lcd_Set_Cursor@z
  1862     070F                     l1867:
  1863                           
  1864                           ;./lcd.h: 46:   y = temp & 0x0F;
  1865     070F  0829               	movf	Lcd_Set_Cursor@temp,w
  1866     0710  390F               	andlw	15
  1867     0711  00A8               	movwf	Lcd_Set_Cursor@y
  1868     0712                     l1869:
  1869                           
  1870                           ;./lcd.h: 47:   Lcd_Cmd(z);
  1871     0712  0827               	movf	Lcd_Set_Cursor@z,w
  1872     0713  120A  118A  27C8  120A  118A  	fcall	_Lcd_Cmd
  1873     0718                     l1871:
  1874                           
  1875                           ;./lcd.h: 48:   Lcd_Cmd(y);
  1876     0718  1283               	bcf	3,5	;RP0=0, select bank0
  1877     0719  1303               	bcf	3,6	;RP1=0, select bank0
  1878     071A  0828               	movf	Lcd_Set_Cursor@y,w
  1879     071B  120A  118A  27C8  120A  118A  	fcall	_Lcd_Cmd
  1880                           
  1881                           ;./lcd.h: 49:  }
  1882     0720  2F45               	goto	l119
  1883     0721                     l1873:
  1884     0721  3002               	movlw	2
  1885     0722  0626               	xorwf	Lcd_Set_Cursor@a,w
  1886     0723  1D03               	btfss	3,2
  1887     0724  2F26               	goto	u1061
  1888     0725  2F27               	goto	u1060
  1889     0726                     u1061:
  1890     0726  2F45               	goto	l119
  1891     0727                     u1060:
  1892     0727                     l1875:
  1893                           
  1894                           ;./lcd.h: 51:  {;./lcd.h: 52:   temp = 0xC0 + b - 1;
  1895     0727  0824               	movf	Lcd_Set_Cursor@b,w
  1896     0728  3EBF               	addlw	191
  1897     0729  00A9               	movwf	Lcd_Set_Cursor@temp
  1898                           
  1899                           ;./lcd.h: 53:   z = temp>>4;
  1900     072A  0829               	movf	Lcd_Set_Cursor@temp,w
  1901     072B  00A5               	movwf	??_Lcd_Set_Cursor
  1902     072C  3004               	movlw	4
  1903     072D                     u1075:
  1904     072D  1003               	clrc
  1905     072E  0CA5               	rrf	??_Lcd_Set_Cursor,f
  1906     072F  3EFF               	addlw	-1
  1907     0730  1D03               	skipz
  1908     0731  2F2D               	goto	u1075
  1909     0732  0825               	movf	??_Lcd_Set_Cursor,w
  1910     0733  00A7               	movwf	Lcd_Set_Cursor@z
  1911     0734                     l1877:
  1912                           
  1913                           ;./lcd.h: 54:   y = temp & 0x0F;
  1914     0734  0829               	movf	Lcd_Set_Cursor@temp,w
  1915     0735  390F               	andlw	15
  1916     0736  00A8               	movwf	Lcd_Set_Cursor@y
  1917     0737                     l1879:
  1918                           
  1919                           ;./lcd.h: 55:   Lcd_Cmd(z);
  1920     0737  0827               	movf	Lcd_Set_Cursor@z,w
  1921     0738  120A  118A  27C8  120A  118A  	fcall	_Lcd_Cmd
  1922     073D                     l1881:
  1923                           
  1924                           ;./lcd.h: 56:   Lcd_Cmd(y);
  1925     073D  1283               	bcf	3,5	;RP0=0, select bank0
  1926     073E  1303               	bcf	3,6	;RP1=0, select bank0
  1927     073F  0828               	movf	Lcd_Set_Cursor@y,w
  1928     0740  120A  118A  27C8  120A  118A  	fcall	_Lcd_Cmd
  1929     0745                     l119:
  1930     0745  0008               	return
  1931     0746                     __end_of_Lcd_Set_Cursor:
  1932                           
  1933                           	psect	text4
  1934     0697                     __ptext4:	
  1935 ;; *************** function _Lcd_Init *****************
  1936 ;; Defined at:
  1937 ;;		line 60 in file "./lcd.h"
  1938 ;; Parameters:    Size  Location     Type
  1939 ;;		None
  1940 ;; Auto vars:     Size  Location     Type
  1941 ;;		None
  1942 ;; Return value:  Size  Location     Type
  1943 ;;                  1    wreg      void 
  1944 ;; Registers used:
  1945 ;;		wreg, status,2, status,0, pclath, cstack
  1946 ;; Tracked objects:
  1947 ;;		On entry : 0/0
  1948 ;;		On exit  : 0/0
  1949 ;;		Unchanged: 0/0
  1950 ;; Data sizes:     COMMON   BANK0   BANK1   BANK3   BANK2
  1951 ;;      Params:         0       0       0       0       0
  1952 ;;      Locals:         0       0       0       0       0
  1953 ;;      Temps:          0       2       0       0       0
  1954 ;;      Totals:         0       2       0       0       0
  1955 ;;Total ram usage:        2 bytes
  1956 ;; Hardware stack levels used: 1
  1957 ;; Hardware stack levels required when called: 3
  1958 ;; This function calls:
  1959 ;;		_Lcd_Cmd
  1960 ;;		_Lcd_Port
  1961 ;; This function is called by:
  1962 ;;		_main
  1963 ;; This function uses a non-reentrant model
  1964 ;;
  1965                           
  1966     0697                     _Lcd_Init:	
  1967                           ;psect for function _Lcd_Init
  1968                           
  1969     0697                     l1883:	
  1970                           ;incstack = 0
  1971                           ; Regs used in _Lcd_Init: [wreg+status,2+status,0+pclath+cstack]
  1972                           
  1973                           
  1974                           ;./lcd.h: 62:   Lcd_Port(0x00);
  1975     0697  3000               	movlw	0
  1976     0698  120A  118A  27A8  120A  118A  	fcall	_Lcd_Port
  1977     069D                     l1885:
  1978                           
  1979                           ;./lcd.h: 63:    _delay((unsigned long)((20)*(4000000/4000.0)));
  1980     069D  301A               	movlw	26
  1981     069E  1283               	bcf	3,5	;RP0=0, select bank0
  1982     069F  1303               	bcf	3,6	;RP1=0, select bank0
  1983     06A0  00A5               	movwf	??_Lcd_Init+1
  1984     06A1  30F7               	movlw	247
  1985     06A2  00A4               	movwf	??_Lcd_Init
  1986     06A3                     u1487:
  1987     06A3  0BA4               	decfsz	??_Lcd_Init,f
  1988     06A4  2EA3               	goto	u1487
  1989     06A5  0BA5               	decfsz	??_Lcd_Init+1,f
  1990     06A6  2EA3               	goto	u1487
  1991     06A7  2EA8               	nop2
  1992     06A8                     l1887:
  1993                           
  1994                           ;./lcd.h: 64:   Lcd_Cmd(0x03);
  1995     06A8  3003               	movlw	3
  1996     06A9  120A  118A  27C8  120A  118A  	fcall	_Lcd_Cmd
  1997                           
  1998                           ;./lcd.h: 65:  _delay((unsigned long)((5)*(4000000/4000.0)));
  1999     06AE  3007               	movlw	7
  2000     06AF  1283               	bcf	3,5	;RP0=0, select bank0
  2001     06B0  1303               	bcf	3,6	;RP1=0, select bank0
  2002     06B1  00A5               	movwf	??_Lcd_Init+1
  2003     06B2  307C               	movlw	124
  2004     06B3  00A4               	movwf	??_Lcd_Init
  2005     06B4                     u1497:
  2006     06B4  0BA4               	decfsz	??_Lcd_Init,f
  2007     06B5  2EB4               	goto	u1497
  2008     06B6  0BA5               	decfsz	??_Lcd_Init+1,f
  2009     06B7  2EB4               	goto	u1497
  2010     06B8  0000               	nop
  2011     06B9                     l1889:
  2012                           
  2013                           ;./lcd.h: 66:   Lcd_Cmd(0x03);
  2014     06B9  3003               	movlw	3
  2015     06BA  120A  118A  27C8  120A  118A  	fcall	_Lcd_Cmd
  2016     06BF                     l1891:
  2017                           
  2018                           ;./lcd.h: 67:  _delay((unsigned long)((11)*(4000000/4000.0)));
  2019     06BF  300F               	movlw	15
  2020     06C0  1283               	bcf	3,5	;RP0=0, select bank0
  2021     06C1  1303               	bcf	3,6	;RP1=0, select bank0
  2022     06C2  00A5               	movwf	??_Lcd_Init+1
  2023     06C3  3047               	movlw	71
  2024     06C4  00A4               	movwf	??_Lcd_Init
  2025     06C5                     u1507:
  2026     06C5  0BA4               	decfsz	??_Lcd_Init,f
  2027     06C6  2EC5               	goto	u1507
  2028     06C7  0BA5               	decfsz	??_Lcd_Init+1,f
  2029     06C8  2EC5               	goto	u1507
  2030                           
  2031                           ;./lcd.h: 68:   Lcd_Cmd(0x03);
  2032     06C9  3003               	movlw	3
  2033     06CA  120A  118A  27C8  120A  118A  	fcall	_Lcd_Cmd
  2034                           
  2035                           ;./lcd.h: 70:   Lcd_Cmd(0x02);
  2036     06CF  3002               	movlw	2
  2037     06D0  120A  118A  27C8  120A  118A  	fcall	_Lcd_Cmd
  2038                           
  2039                           ;./lcd.h: 71:   Lcd_Cmd(0x02);
  2040     06D5  3002               	movlw	2
  2041     06D6  120A  118A  27C8  120A  118A  	fcall	_Lcd_Cmd
  2042                           
  2043                           ;./lcd.h: 72:   Lcd_Cmd(0x08);
  2044     06DB  3008               	movlw	8
  2045     06DC  120A  118A  27C8  120A  118A  	fcall	_Lcd_Cmd
  2046                           
  2047                           ;./lcd.h: 73:   Lcd_Cmd(0x00);
  2048     06E1  3000               	movlw	0
  2049     06E2  120A  118A  27C8  120A  118A  	fcall	_Lcd_Cmd
  2050                           
  2051                           ;./lcd.h: 74:   Lcd_Cmd(0x0C);
  2052     06E7  300C               	movlw	12
  2053     06E8  120A  118A  27C8  120A  118A  	fcall	_Lcd_Cmd
  2054                           
  2055                           ;./lcd.h: 75:   Lcd_Cmd(0x00);
  2056     06ED  3000               	movlw	0
  2057     06EE  120A  118A  27C8  120A  118A  	fcall	_Lcd_Cmd
  2058                           
  2059                           ;./lcd.h: 76:   Lcd_Cmd(0x06);
  2060     06F3  3006               	movlw	6
  2061     06F4  120A  118A  27C8  120A  118A  	fcall	_Lcd_Cmd
  2062     06F9                     l122:
  2063     06F9  0008               	return
  2064     06FA                     __end_of_Lcd_Init:
  2065                           
  2066                           	psect	text5
  2067     07E4                     __ptext5:	
  2068 ;; *************** function _Lcd_Clear *****************
  2069 ;; Defined at:
  2070 ;;		line 33 in file "./lcd.h"
  2071 ;; Parameters:    Size  Location     Type
  2072 ;;		None
  2073 ;; Auto vars:     Size  Location     Type
  2074 ;;		None
  2075 ;; Return value:  Size  Location     Type
  2076 ;;                  1    wreg      void 
  2077 ;; Registers used:
  2078 ;;		wreg, status,2, status,0, pclath, cstack
  2079 ;; Tracked objects:
  2080 ;;		On entry : 0/0
  2081 ;;		On exit  : 0/0
  2082 ;;		Unchanged: 0/0
  2083 ;; Data sizes:     COMMON   BANK0   BANK1   BANK3   BANK2
  2084 ;;      Params:         0       0       0       0       0
  2085 ;;      Locals:         0       0       0       0       0
  2086 ;;      Temps:          0       0       0       0       0
  2087 ;;      Totals:         0       0       0       0       0
  2088 ;;Total ram usage:        0 bytes
  2089 ;; Hardware stack levels used: 1
  2090 ;; Hardware stack levels required when called: 3
  2091 ;; This function calls:
  2092 ;;		_Lcd_Cmd
  2093 ;; This function is called by:
  2094 ;;		_main
  2095 ;; This function uses a non-reentrant model
  2096 ;;
  2097                           
  2098     07E4                     _Lcd_Clear:	
  2099                           ;psect for function _Lcd_Clear
  2100                           
  2101     07E4                     l1861:	
  2102                           ;incstack = 0
  2103                           ; Regs used in _Lcd_Clear: [wreg+status,2+status,0+pclath+cstack]
  2104                           
  2105                           
  2106                           ;./lcd.h: 35:  Lcd_Cmd(0);
  2107     07E4  3000               	movlw	0
  2108     07E5  120A  118A  27C8  120A  118A  	fcall	_Lcd_Cmd
  2109                           
  2110                           ;./lcd.h: 36:  Lcd_Cmd(1);
  2111     07EA  3001               	movlw	1
  2112     07EB  120A  118A  27C8  120A  118A  	fcall	_Lcd_Cmd
  2113     07F0                     l113:
  2114     07F0  0008               	return
  2115     07F1                     __end_of_Lcd_Clear:
  2116                           
  2117                           	psect	text6
  2118     07C8                     __ptext6:	
  2119 ;; *************** function _Lcd_Cmd *****************
  2120 ;; Defined at:
  2121 ;;		line 24 in file "./lcd.h"
  2122 ;; Parameters:    Size  Location     Type
  2123 ;;  a               1    wreg     unsigned char 
  2124 ;; Auto vars:     Size  Location     Type
  2125 ;;  a               1    3[BANK0 ] unsigned char 
  2126 ;; Return value:  Size  Location     Type
  2127 ;;                  1    wreg      void 
  2128 ;; Registers used:
  2129 ;;		wreg, status,2, status,0, pclath, cstack
  2130 ;; Tracked objects:
  2131 ;;		On entry : 0/0
  2132 ;;		On exit  : 0/0
  2133 ;;		Unchanged: 0/0
  2134 ;; Data sizes:     COMMON   BANK0   BANK1   BANK3   BANK2
  2135 ;;      Params:         0       0       0       0       0
  2136 ;;      Locals:         0       1       0       0       0
  2137 ;;      Temps:          0       2       0       0       0
  2138 ;;      Totals:         0       3       0       0       0
  2139 ;;Total ram usage:        3 bytes
  2140 ;; Hardware stack levels used: 1
  2141 ;; Hardware stack levels required when called: 2
  2142 ;; This function calls:
  2143 ;;		_Lcd_Port
  2144 ;; This function is called by:
  2145 ;;		_Lcd_Clear
  2146 ;;		_Lcd_Set_Cursor
  2147 ;;		_Lcd_Init
  2148 ;;		_Lcd_Shift_Right
  2149 ;;		_Lcd_Shift_Left
  2150 ;; This function uses a non-reentrant model
  2151 ;;
  2152                           
  2153     07C8                     _Lcd_Cmd:	
  2154                           ;psect for function _Lcd_Cmd
  2155                           
  2156                           
  2157                           ;incstack = 0
  2158                           ; Regs used in _Lcd_Cmd: [wreg+status,2+status,0+pclath+cstack]
  2159                           ;Lcd_Cmd@a stored from wreg
  2160     07C8  1283               	bcf	3,5	;RP0=0, select bank0
  2161     07C9  1303               	bcf	3,6	;RP1=0, select bank0
  2162     07CA  00A3               	movwf	Lcd_Cmd@a
  2163     07CB                     l1831:
  2164                           
  2165                           ;./lcd.h: 24: void Lcd_Cmd(char a);./lcd.h: 25: {;./lcd.h: 26:  RD2 = 0;
  2166     07CB  1108               	bcf	8,2	;volatile
  2167     07CC                     l1833:
  2168                           
  2169                           ;./lcd.h: 27:  Lcd_Port(a);
  2170     07CC  0823               	movf	Lcd_Cmd@a,w
  2171     07CD  120A  118A  27A8  120A  118A  	fcall	_Lcd_Port
  2172     07D2                     l1835:
  2173                           
  2174                           ;./lcd.h: 28:  RD3 = 1;
  2175     07D2  1283               	bcf	3,5	;RP0=0, select bank0
  2176     07D3  1303               	bcf	3,6	;RP1=0, select bank0
  2177     07D4  1588               	bsf	8,3	;volatile
  2178     07D5                     l1837:
  2179                           
  2180                           ;./lcd.h: 29:         _delay((unsigned long)((4)*(4000000/4000.0)));
  2181     07D5  3006               	movlw	6
  2182     07D6  1283               	bcf	3,5	;RP0=0, select bank0
  2183     07D7  1303               	bcf	3,6	;RP1=0, select bank0
  2184     07D8  00A2               	movwf	??_Lcd_Cmd+1
  2185     07D9  302F               	movlw	47
  2186     07DA  00A1               	movwf	??_Lcd_Cmd
  2187     07DB                     u1517:
  2188     07DB  0BA1               	decfsz	??_Lcd_Cmd,f
  2189     07DC  2FDB               	goto	u1517
  2190     07DD  0BA2               	decfsz	??_Lcd_Cmd+1,f
  2191     07DE  2FDB               	goto	u1517
  2192     07DF  2FE0               	nop2
  2193     07E0                     l1839:
  2194                           
  2195                           ;./lcd.h: 30:         RD3 = 0;
  2196     07E0  1283               	bcf	3,5	;RP0=0, select bank0
  2197     07E1  1303               	bcf	3,6	;RP1=0, select bank0
  2198     07E2  1188               	bcf	8,3	;volatile
  2199     07E3                     l110:
  2200     07E3  0008               	return
  2201     07E4                     __end_of_Lcd_Cmd:
  2202                           
  2203                           	psect	text7
  2204     07A8                     __ptext7:	
  2205 ;; *************** function _Lcd_Port *****************
  2206 ;; Defined at:
  2207 ;;		line 2 in file "./lcd.h"
  2208 ;; Parameters:    Size  Location     Type
  2209 ;;  a               1    wreg     unsigned char 
  2210 ;; Auto vars:     Size  Location     Type
  2211 ;;  a               1    0[BANK0 ] unsigned char 
  2212 ;; Return value:  Size  Location     Type
  2213 ;;                  1    wreg      void 
  2214 ;; Registers used:
  2215 ;;		wreg
  2216 ;; Tracked objects:
  2217 ;;		On entry : 0/0
  2218 ;;		On exit  : 0/0
  2219 ;;		Unchanged: 0/0
  2220 ;; Data sizes:     COMMON   BANK0   BANK1   BANK3   BANK2
  2221 ;;      Params:         0       0       0       0       0
  2222 ;;      Locals:         0       1       0       0       0
  2223 ;;      Temps:          0       0       0       0       0
  2224 ;;      Totals:         0       1       0       0       0
  2225 ;;Total ram usage:        1 bytes
  2226 ;; Hardware stack levels used: 1
  2227 ;; Hardware stack levels required when called: 1
  2228 ;; This function calls:
  2229 ;;		Nothing
  2230 ;; This function is called by:
  2231 ;;		_Lcd_Cmd
  2232 ;;		_Lcd_Init
  2233 ;;		_Lcd_Write_Char
  2234 ;; This function uses a non-reentrant model
  2235 ;;
  2236                           
  2237     07A8                     _Lcd_Port:	
  2238                           ;psect for function _Lcd_Port
  2239                           
  2240                           
  2241                           ;incstack = 0
  2242                           ; Regs used in _Lcd_Port: [wreg]
  2243                           ;Lcd_Port@a stored from wreg
  2244     07A8  1283               	bcf	3,5	;RP0=0, select bank0
  2245     07A9  1303               	bcf	3,6	;RP1=0, select bank0
  2246     07AA  00A0               	movwf	Lcd_Port@a
  2247     07AB                     l1821:
  2248                           
  2249                           ;./lcd.h: 2: void Lcd_Port(char a);./lcd.h: 3: {;./lcd.h: 4:  if(a & 1)
  2250     07AB  1C20               	btfss	Lcd_Port@a,0
  2251     07AC  2FAE               	goto	u991
  2252     07AD  2FAF               	goto	u990
  2253     07AE                     u991:
  2254     07AE  2FB1               	goto	l99
  2255     07AF                     u990:
  2256     07AF                     l1823:
  2257                           
  2258                           ;./lcd.h: 5:   RD4 = 1;
  2259     07AF  1608               	bsf	8,4	;volatile
  2260     07B0  2FB2               	goto	l100
  2261     07B1                     l99:	
  2262                           ;./lcd.h: 6:  else
  2263                           
  2264                           
  2265                           ;./lcd.h: 7:   RD4 = 0;
  2266     07B1  1208               	bcf	8,4	;volatile
  2267     07B2                     l100:
  2268                           
  2269                           ;./lcd.h: 9:  if(a & 2)
  2270     07B2  1CA0               	btfss	Lcd_Port@a,1
  2271     07B3  2FB5               	goto	u1001
  2272     07B4  2FB6               	goto	u1000
  2273     07B5                     u1001:
  2274     07B5  2FB8               	goto	l101
  2275     07B6                     u1000:
  2276     07B6                     l1825:
  2277                           
  2278                           ;./lcd.h: 10:   RD5 = 1;
  2279     07B6  1688               	bsf	8,5	;volatile
  2280     07B7  2FB9               	goto	l102
  2281     07B8                     l101:	
  2282                           ;./lcd.h: 11:  else
  2283                           
  2284                           
  2285                           ;./lcd.h: 12:   RD5 = 0;
  2286     07B8  1288               	bcf	8,5	;volatile
  2287     07B9                     l102:
  2288                           
  2289                           ;./lcd.h: 14:  if(a & 4)
  2290     07B9  1D20               	btfss	Lcd_Port@a,2
  2291     07BA  2FBC               	goto	u1011
  2292     07BB  2FBD               	goto	u1010
  2293     07BC                     u1011:
  2294     07BC  2FBF               	goto	l103
  2295     07BD                     u1010:
  2296     07BD                     l1827:
  2297                           
  2298                           ;./lcd.h: 15:   RD6 = 1;
  2299     07BD  1708               	bsf	8,6	;volatile
  2300     07BE  2FC0               	goto	l104
  2301     07BF                     l103:	
  2302                           ;./lcd.h: 16:  else
  2303                           
  2304                           
  2305                           ;./lcd.h: 17:   RD6 = 0;
  2306     07BF  1308               	bcf	8,6	;volatile
  2307     07C0                     l104:
  2308                           
  2309                           ;./lcd.h: 19:  if(a & 8)
  2310     07C0  1DA0               	btfss	Lcd_Port@a,3
  2311     07C1  2FC3               	goto	u1021
  2312     07C2  2FC4               	goto	u1020
  2313     07C3                     u1021:
  2314     07C3  2FC6               	goto	l105
  2315     07C4                     u1020:
  2316     07C4                     l1829:
  2317                           
  2318                           ;./lcd.h: 20:   RD7 = 1;
  2319     07C4  1788               	bsf	8,7	;volatile
  2320     07C5  2FC7               	goto	l107
  2321     07C6                     l105:	
  2322                           ;./lcd.h: 21:  else
  2323                           
  2324                           
  2325                           ;./lcd.h: 22:   RD7 = 0;
  2326     07C6  1388               	bcf	8,7	;volatile
  2327     07C7                     l107:
  2328     07C7  0008               	return
  2329     07C8                     __end_of_Lcd_Port:
  2330                           
  2331                           	psect	text8
  2332     0025                     __ptext8:	
  2333 ;; *************** function _TrataInt *****************
  2334 ;; Defined at:
  2335 ;;		line 41 in file "main.c"
  2336 ;; Parameters:    Size  Location     Type
  2337 ;;		None
  2338 ;; Auto vars:     Size  Location     Type
  2339 ;;		None
  2340 ;; Return value:  Size  Location     Type
  2341 ;;                  1    wreg      void 
  2342 ;; Registers used:
  2343 ;;		wreg, status,2, status,0, btemp+1
  2344 ;; Tracked objects:
  2345 ;;		On entry : 0/0
  2346 ;;		On exit  : 0/0
  2347 ;;		Unchanged: 0/0
  2348 ;; Data sizes:     COMMON   BANK0   BANK1   BANK3   BANK2
  2349 ;;      Params:         0       0       0       0       0
  2350 ;;      Locals:         0       0       0       0       0
  2351 ;;      Temps:          5       0       0       0       0
  2352 ;;      Totals:         5       0       0       0       0
  2353 ;;Total ram usage:        5 bytes
  2354 ;; Hardware stack levels used: 1
  2355 ;; This function calls:
  2356 ;;		Nothing
  2357 ;; This function is called by:
  2358 ;;		Interrupt level 1
  2359 ;; This function uses a non-reentrant model
  2360 ;;
  2361                           
  2362     0025                     _TrataInt:	
  2363                           ;psect for function _TrataInt
  2364                           
  2365     0025                     i1l1369:
  2366                           
  2367                           ;main.c: 43:     if(INTF)
  2368     0025  1C8B               	btfss	11,1	;volatile
  2369     0026  2828               	goto	u60_21
  2370     0027  2829               	goto	u60_20
  2371     0028                     u60_21:
  2372     0028  2876               	goto	i1l1387
  2373     0029                     u60_20:
  2374     0029                     i1l1371:
  2375                           
  2376                           ;main.c: 44:     {;main.c: 45:         INTCONbits.INTF = 0;
  2377     0029  108B               	bcf	11,1	;volatile
  2378                           
  2379                           ;main.c: 46:         PORTCbits.RC4 = 0;
  2380     002A  1283               	bcf	3,5	;RP0=0, select bank0
  2381     002B  1303               	bcf	3,6	;RP1=0, select bank0
  2382     002C  1207               	bcf	7,4	;volatile
  2383     002D                     i1l1373:
  2384                           
  2385                           ;main.c: 47:         _delay((unsigned long)((100)*(4000000/4000.0)));
  2386     002D  3082               	movlw	130
  2387     002E  00F1               	movwf	??_TrataInt+1
  2388     002F  30DD               	movlw	221
  2389     0030  00F0               	movwf	??_TrataInt
  2390     0031                     u152_27:
  2391     0031  0BF0               	decfsz	??_TrataInt,f
  2392     0032  2831               	goto	u152_27
  2393     0033  0BF1               	decfsz	??_TrataInt+1,f
  2394     0034  2831               	goto	u152_27
  2395     0035  2836               	nop2
  2396     0036                     i1l1375:
  2397                           
  2398                           ;main.c: 48:         PORTCbits.RC1 = 0;
  2399     0036  1283               	bcf	3,5	;RP0=0, select bank0
  2400     0037  1303               	bcf	3,6	;RP1=0, select bank0
  2401     0038  1087               	bcf	7,1	;volatile
  2402                           
  2403                           ;main.c: 49:         _delay((unsigned long)((100)*(4000000/4000.0)));
  2404     0039  3082               	movlw	130
  2405     003A  00F1               	movwf	??_TrataInt+1
  2406     003B  30DD               	movlw	221
  2407     003C  00F0               	movwf	??_TrataInt
  2408     003D                     u153_27:
  2409     003D  0BF0               	decfsz	??_TrataInt,f
  2410     003E  283D               	goto	u153_27
  2411     003F  0BF1               	decfsz	??_TrataInt+1,f
  2412     0040  283D               	goto	u153_27
  2413     0041  2842               	nop2
  2414     0042                     i1l1377:
  2415                           
  2416                           ;main.c: 50:         PORTCbits.RC2 = 0;
  2417     0042  1283               	bcf	3,5	;RP0=0, select bank0
  2418     0043  1303               	bcf	3,6	;RP1=0, select bank0
  2419     0044  1107               	bcf	7,2	;volatile
  2420                           
  2421                           ;main.c: 51:         _delay((unsigned long)((100)*(4000000/4000.0)));
  2422     0045  3082               	movlw	130
  2423     0046  00F1               	movwf	??_TrataInt+1
  2424     0047  30DD               	movlw	221
  2425     0048  00F0               	movwf	??_TrataInt
  2426     0049                     u154_27:
  2427     0049  0BF0               	decfsz	??_TrataInt,f
  2428     004A  2849               	goto	u154_27
  2429     004B  0BF1               	decfsz	??_TrataInt+1,f
  2430     004C  2849               	goto	u154_27
  2431     004D  284E               	nop2
  2432     004E                     i1l1379:
  2433                           
  2434                           ;main.c: 52:         PORTCbits.RC3 = 0;
  2435     004E  1283               	bcf	3,5	;RP0=0, select bank0
  2436     004F  1303               	bcf	3,6	;RP1=0, select bank0
  2437     0050  1187               	bcf	7,3	;volatile
  2438                           
  2439                           ;main.c: 53:         _delay((unsigned long)((100)*(4000000/4000.0)));
  2440     0051  3082               	movlw	130
  2441     0052  00F1               	movwf	??_TrataInt+1
  2442     0053  30DD               	movlw	221
  2443     0054  00F0               	movwf	??_TrataInt
  2444     0055                     u155_27:
  2445     0055  0BF0               	decfsz	??_TrataInt,f
  2446     0056  2855               	goto	u155_27
  2447     0057  0BF1               	decfsz	??_TrataInt+1,f
  2448     0058  2855               	goto	u155_27
  2449     0059  285A               	nop2
  2450     005A                     i1l1381:
  2451                           
  2452                           ;main.c: 54:         PORTCbits.RC0 = 0;
  2453     005A  1283               	bcf	3,5	;RP0=0, select bank0
  2454     005B  1303               	bcf	3,6	;RP1=0, select bank0
  2455     005C  1007               	bcf	7,0	;volatile
  2456                           
  2457                           ;main.c: 55:         _delay((unsigned long)((100)*(4000000/4000.0)));
  2458     005D  3082               	movlw	130
  2459     005E  00F1               	movwf	??_TrataInt+1
  2460     005F  30DD               	movlw	221
  2461     0060  00F0               	movwf	??_TrataInt
  2462     0061                     u156_27:
  2463     0061  0BF0               	decfsz	??_TrataInt,f
  2464     0062  2861               	goto	u156_27
  2465     0063  0BF1               	decfsz	??_TrataInt+1,f
  2466     0064  2861               	goto	u156_27
  2467     0065  2866               	nop2
  2468     0066                     i1l1383:
  2469                           
  2470                           ;main.c: 56:         PORTCbits.RC5 = 0;
  2471     0066  1283               	bcf	3,5	;RP0=0, select bank0
  2472     0067  1303               	bcf	3,6	;RP1=0, select bank0
  2473     0068  1287               	bcf	7,5	;volatile
  2474                           
  2475                           ;main.c: 57:         _delay((unsigned long)((100)*(4000000/4000.0)));
  2476     0069  3082               	movlw	130
  2477     006A  00F1               	movwf	??_TrataInt+1
  2478     006B  30DD               	movlw	221
  2479     006C  00F0               	movwf	??_TrataInt
  2480     006D                     u157_27:
  2481     006D  0BF0               	decfsz	??_TrataInt,f
  2482     006E  286D               	goto	u157_27
  2483     006F  0BF1               	decfsz	??_TrataInt+1,f
  2484     0070  286D               	goto	u157_27
  2485     0071  2872               	nop2
  2486     0072                     i1l1385:
  2487                           
  2488                           ;main.c: 58:         valor = 0;
  2489     0072  1283               	bcf	3,5	;RP0=0, select bank0
  2490     0073  1303               	bcf	3,6	;RP1=0, select bank0
  2491     0074  01B5               	clrf	_valor
  2492     0075  01B6               	clrf	_valor+1
  2493     0076                     i1l1387:
  2494                           
  2495                           ;main.c: 60:     if (ADIF)
  2496     0076  1283               	bcf	3,5	;RP0=0, select bank0
  2497     0077  1303               	bcf	3,6	;RP1=0, select bank0
  2498     0078  1F0C               	btfss	12,6	;volatile
  2499     0079  287B               	goto	u61_21
  2500     007A  287C               	goto	u61_20
  2501     007B                     u61_21:
  2502     007B  2AB8               	goto	i1l1541
  2503     007C                     u61_20:
  2504     007C                     i1l1389:
  2505                           
  2506                           ;main.c: 61:     {;main.c: 62:         PIR1bits.ADIF = 0;
  2507     007C  130C               	bcf	12,6	;volatile
  2508     007D                     i1l1391:
  2509                           
  2510                           ;main.c: 64:         if (B != 127)
  2511     007D  307F               	movlw	127
  2512     007E  0633               	xorwf	_B,w
  2513     007F  0434               	iorwf	_B+1,w
  2514     0080  1903               	btfsc	3,2
  2515     0081  2883               	goto	u62_21
  2516     0082  2884               	goto	u62_20
  2517     0083                     u62_21:
  2518     0083  28B4               	goto	i1l1411
  2519     0084                     u62_20:
  2520     0084                     i1l1393:
  2521                           
  2522                           ;main.c: 65:         {;main.c: 66:             valor = 0;
  2523     0084  01B5               	clrf	_valor
  2524     0085  01B6               	clrf	_valor+1
  2525     0086                     i1l1395:
  2526                           
  2527                           ;main.c: 67:             PORTCbits.RC1 = 0;
  2528     0086  1087               	bcf	7,1	;volatile
  2529     0087                     i1l1397:
  2530                           
  2531                           ;main.c: 68:             _delay((unsigned long)((100)*(4000000/4000.0)));
  2532     0087  3082               	movlw	130
  2533     0088  00F1               	movwf	??_TrataInt+1
  2534     0089  30DD               	movlw	221
  2535     008A  00F0               	movwf	??_TrataInt
  2536     008B                     u158_27:
  2537     008B  0BF0               	decfsz	??_TrataInt,f
  2538     008C  288B               	goto	u158_27
  2539     008D  0BF1               	decfsz	??_TrataInt+1,f
  2540     008E  288B               	goto	u158_27
  2541     008F  2890               	nop2
  2542     0090                     i1l1399:
  2543                           
  2544                           ;main.c: 69:             PORTCbits.RC0 = 0;
  2545     0090  1283               	bcf	3,5	;RP0=0, select bank0
  2546     0091  1303               	bcf	3,6	;RP1=0, select bank0
  2547     0092  1007               	bcf	7,0	;volatile
  2548     0093                     i1l1401:
  2549                           
  2550                           ;main.c: 70:             _delay((unsigned long)((100)*(4000000/4000.0)));
  2551     0093  3082               	movlw	130
  2552     0094  00F1               	movwf	??_TrataInt+1
  2553     0095  30DD               	movlw	221
  2554     0096  00F0               	movwf	??_TrataInt
  2555     0097                     u159_27:
  2556     0097  0BF0               	decfsz	??_TrataInt,f
  2557     0098  2897               	goto	u159_27
  2558     0099  0BF1               	decfsz	??_TrataInt+1,f
  2559     009A  2897               	goto	u159_27
  2560     009B  289C               	nop2
  2561     009C                     i1l1403:
  2562                           
  2563                           ;main.c: 71:             PORTCbits.RC3 = 0;
  2564     009C  1283               	bcf	3,5	;RP0=0, select bank0
  2565     009D  1303               	bcf	3,6	;RP1=0, select bank0
  2566     009E  1187               	bcf	7,3	;volatile
  2567     009F                     i1l1405:
  2568                           
  2569                           ;main.c: 72:             _delay((unsigned long)((100)*(4000000/4000.0)));
  2570     009F  3082               	movlw	130
  2571     00A0  00F1               	movwf	??_TrataInt+1
  2572     00A1  30DD               	movlw	221
  2573     00A2  00F0               	movwf	??_TrataInt
  2574     00A3                     u160_27:
  2575     00A3  0BF0               	decfsz	??_TrataInt,f
  2576     00A4  28A3               	goto	u160_27
  2577     00A5  0BF1               	decfsz	??_TrataInt+1,f
  2578     00A6  28A3               	goto	u160_27
  2579     00A7  28A8               	nop2
  2580     00A8                     i1l1407:
  2581                           
  2582                           ;main.c: 73:             PORTCbits.RC5 = 0;
  2583     00A8  1283               	bcf	3,5	;RP0=0, select bank0
  2584     00A9  1303               	bcf	3,6	;RP1=0, select bank0
  2585     00AA  1287               	bcf	7,5	;volatile
  2586     00AB                     i1l1409:
  2587                           
  2588                           ;main.c: 74:             _delay((unsigned long)((100)*(4000000/4000.0)));
  2589     00AB  3082               	movlw	130
  2590     00AC  00F1               	movwf	??_TrataInt+1
  2591     00AD  30DD               	movlw	221
  2592     00AE  00F0               	movwf	??_TrataInt
  2593     00AF                     u161_27:
  2594     00AF  0BF0               	decfsz	??_TrataInt,f
  2595     00B0  28AF               	goto	u161_27
  2596     00B1  0BF1               	decfsz	??_TrataInt+1,f
  2597     00B2  28AF               	goto	u161_27
  2598     00B3  28B4               	nop2
  2599     00B4                     i1l1411:
  2600                           
  2601                           ;main.c: 77:         if(SP != 127)
  2602     00B4  307F               	movlw	127
  2603     00B5  1283               	bcf	3,5	;RP0=0, select bank0
  2604     00B6  1303               	bcf	3,6	;RP1=0, select bank0
  2605     00B7  0631               	xorwf	_SP,w
  2606     00B8  0432               	iorwf	_SP+1,w
  2607     00B9  1903               	btfsc	3,2
  2608     00BA  28BC               	goto	u63_21
  2609     00BB  28BD               	goto	u63_20
  2610     00BC                     u63_21:
  2611     00BC  28FA               	goto	i1l1435
  2612     00BD                     u63_20:
  2613     00BD                     i1l1413:
  2614                           
  2615                           ;main.c: 78:         {;main.c: 79:             valor = 0;
  2616     00BD  01B5               	clrf	_valor
  2617     00BE  01B6               	clrf	_valor+1
  2618     00BF                     i1l1415:
  2619                           
  2620                           ;main.c: 80:             PORTCbits.RC1 = 0;
  2621     00BF  1087               	bcf	7,1	;volatile
  2622     00C0                     i1l1417:
  2623                           
  2624                           ;main.c: 81:             _delay((unsigned long)((100)*(4000000/4000.0)));
  2625     00C0  3082               	movlw	130
  2626     00C1  00F1               	movwf	??_TrataInt+1
  2627     00C2  30DD               	movlw	221
  2628     00C3  00F0               	movwf	??_TrataInt
  2629     00C4                     u162_27:
  2630     00C4  0BF0               	decfsz	??_TrataInt,f
  2631     00C5  28C4               	goto	u162_27
  2632     00C6  0BF1               	decfsz	??_TrataInt+1,f
  2633     00C7  28C4               	goto	u162_27
  2634     00C8  28C9               	nop2
  2635     00C9                     i1l1419:
  2636                           
  2637                           ;main.c: 82:             PORTCbits.RC3 = 0;
  2638     00C9  1283               	bcf	3,5	;RP0=0, select bank0
  2639     00CA  1303               	bcf	3,6	;RP1=0, select bank0
  2640     00CB  1187               	bcf	7,3	;volatile
  2641     00CC                     i1l1421:
  2642                           
  2643                           ;main.c: 83:             _delay((unsigned long)((100)*(4000000/4000.0)));
  2644     00CC  3082               	movlw	130
  2645     00CD  00F1               	movwf	??_TrataInt+1
  2646     00CE  30DD               	movlw	221
  2647     00CF  00F0               	movwf	??_TrataInt
  2648     00D0                     u163_27:
  2649     00D0  0BF0               	decfsz	??_TrataInt,f
  2650     00D1  28D0               	goto	u163_27
  2651     00D2  0BF1               	decfsz	??_TrataInt+1,f
  2652     00D3  28D0               	goto	u163_27
  2653     00D4  28D5               	nop2
  2654     00D5                     i1l1423:
  2655                           
  2656                           ;main.c: 84:             PORTCbits.RC0 = 0;
  2657     00D5  1283               	bcf	3,5	;RP0=0, select bank0
  2658     00D6  1303               	bcf	3,6	;RP1=0, select bank0
  2659     00D7  1007               	bcf	7,0	;volatile
  2660     00D8                     i1l1425:
  2661                           
  2662                           ;main.c: 85:             _delay((unsigned long)((100)*(4000000/4000.0)));
  2663     00D8  3082               	movlw	130
  2664     00D9  00F1               	movwf	??_TrataInt+1
  2665     00DA  30DD               	movlw	221
  2666     00DB  00F0               	movwf	??_TrataInt
  2667     00DC                     u164_27:
  2668     00DC  0BF0               	decfsz	??_TrataInt,f
  2669     00DD  28DC               	goto	u164_27
  2670     00DE  0BF1               	decfsz	??_TrataInt+1,f
  2671     00DF  28DC               	goto	u164_27
  2672     00E0  28E1               	nop2
  2673     00E1                     i1l1427:
  2674                           
  2675                           ;main.c: 86:             PORTCbits.RC5 = 0;
  2676     00E1  1283               	bcf	3,5	;RP0=0, select bank0
  2677     00E2  1303               	bcf	3,6	;RP1=0, select bank0
  2678     00E3  1287               	bcf	7,5	;volatile
  2679     00E4                     i1l1429:
  2680                           
  2681                           ;main.c: 87:             _delay((unsigned long)((100)*(4000000/4000.0)));
  2682     00E4  3082               	movlw	130
  2683     00E5  00F1               	movwf	??_TrataInt+1
  2684     00E6  30DD               	movlw	221
  2685     00E7  00F0               	movwf	??_TrataInt
  2686     00E8                     u165_27:
  2687     00E8  0BF0               	decfsz	??_TrataInt,f
  2688     00E9  28E8               	goto	u165_27
  2689     00EA  0BF1               	decfsz	??_TrataInt+1,f
  2690     00EB  28E8               	goto	u165_27
  2691     00EC  28ED               	nop2
  2692     00ED                     i1l1431:
  2693                           
  2694                           ;main.c: 88:             PORTCbits.RC2 = 1;
  2695     00ED  1283               	bcf	3,5	;RP0=0, select bank0
  2696     00EE  1303               	bcf	3,6	;RP1=0, select bank0
  2697     00EF  1507               	bsf	7,2	;volatile
  2698     00F0                     i1l1433:
  2699                           
  2700                           ;main.c: 89:             _delay((unsigned long)((100)*(4000000/4000.0)));
  2701     00F0  3082               	movlw	130
  2702     00F1  00F1               	movwf	??_TrataInt+1
  2703     00F2  30DD               	movlw	221
  2704     00F3  00F0               	movwf	??_TrataInt
  2705     00F4                     u166_27:
  2706     00F4  0BF0               	decfsz	??_TrataInt,f
  2707     00F5  28F4               	goto	u166_27
  2708     00F6  0BF1               	decfsz	??_TrataInt+1,f
  2709     00F7  28F4               	goto	u166_27
  2710     00F8  28F9               	nop2
  2711                           
  2712                           ;main.c: 90:         }
  2713     00F9  2903               	goto	i1l1441
  2714     00FA                     i1l1435:
  2715     00FA  307F               	movlw	127
  2716     00FB  0631               	xorwf	_SP,w
  2717     00FC  0432               	iorwf	_SP+1,w
  2718     00FD  1D03               	btfss	3,2
  2719     00FE  2900               	goto	u64_21
  2720     00FF  2901               	goto	u64_20
  2721     0100                     u64_21:
  2722     0100  2903               	goto	i1l1441
  2723     0101                     u64_20:
  2724     0101                     i1l1437:
  2725                           
  2726                           ;main.c: 92:         {;main.c: 93:             PORTCbits.RC2 = 0;
  2727     0101  1107               	bcf	7,2	;volatile
  2728     0102  28F0               	goto	i1l1433
  2729     0103                     i1l1441:
  2730                           
  2731                           ;main.c: 97:         if(SE > 127)
  2732     0103  1283               	bcf	3,5	;RP0=0, select bank0
  2733     0104  1303               	bcf	3,6	;RP1=0, select bank0
  2734     0105  0830               	movf	_SE+1,w
  2735     0106  3A80               	xorlw	128
  2736     0107  00FF               	movwf	btemp+1
  2737     0108  3080               	movlw	128
  2738     0109  027F               	subwf	btemp+1,w
  2739     010A  1D03               	skipz
  2740     010B  290E               	goto	u65_25
  2741     010C  3080               	movlw	128
  2742     010D  022F               	subwf	_SE,w
  2743     010E                     u65_25:
  2744     010E  1C03               	skipc
  2745     010F  2911               	goto	u65_21
  2746     0110  2912               	goto	u65_20
  2747     0111                     u65_21:
  2748     0111  2939               	goto	i1l1457
  2749     0112                     u65_20:
  2750     0112                     i1l1443:
  2751                           
  2752                           ;main.c: 98:         {;main.c: 99:             valor = 0;
  2753     0112  1283               	bcf	3,5	;RP0=0, select bank0
  2754     0113  1303               	bcf	3,6	;RP1=0, select bank0
  2755     0114  01B5               	clrf	_valor
  2756     0115  01B6               	clrf	_valor+1
  2757     0116                     i1l1445:
  2758                           
  2759                           ;main.c: 100:             PORTCbits.RC4 = 1;
  2760     0116  1607               	bsf	7,4	;volatile
  2761     0117                     i1l1447:
  2762                           
  2763                           ;main.c: 101:             _delay((unsigned long)((100)*(4000000/4000.0)));
  2764     0117  3082               	movlw	130
  2765     0118  00F1               	movwf	??_TrataInt+1
  2766     0119  30DD               	movlw	221
  2767     011A  00F0               	movwf	??_TrataInt
  2768     011B                     u167_27:
  2769     011B  0BF0               	decfsz	??_TrataInt,f
  2770     011C  291B               	goto	u167_27
  2771     011D  0BF1               	decfsz	??_TrataInt+1,f
  2772     011E  291B               	goto	u167_27
  2773     011F  2920               	nop2
  2774     0120                     i1l1449:
  2775                           
  2776                           ;main.c: 102:             PORTCbits.RC1 = 0;
  2777     0120  1283               	bcf	3,5	;RP0=0, select bank0
  2778     0121  1303               	bcf	3,6	;RP1=0, select bank0
  2779     0122  1087               	bcf	7,1	;volatile
  2780     0123                     i1l1451:
  2781                           
  2782                           ;main.c: 103:             _delay((unsigned long)((100)*(4000000/4000.0)));
  2783     0123  3082               	movlw	130
  2784     0124  00F1               	movwf	??_TrataInt+1
  2785     0125  30DD               	movlw	221
  2786     0126  00F0               	movwf	??_TrataInt
  2787     0127                     u168_27:
  2788     0127  0BF0               	decfsz	??_TrataInt,f
  2789     0128  2927               	goto	u168_27
  2790     0129  0BF1               	decfsz	??_TrataInt+1,f
  2791     012A  2927               	goto	u168_27
  2792     012B  292C               	nop2
  2793     012C                     i1l1453:
  2794                           
  2795                           ;main.c: 104:             PORTCbits.RC0 = 0;
  2796     012C  1283               	bcf	3,5	;RP0=0, select bank0
  2797     012D  1303               	bcf	3,6	;RP1=0, select bank0
  2798     012E  1007               	bcf	7,0	;volatile
  2799     012F                     i1l1455:
  2800                           
  2801                           ;main.c: 105:             _delay((unsigned long)((100)*(4000000/4000.0)));
  2802     012F  3082               	movlw	130
  2803     0130  00F1               	movwf	??_TrataInt+1
  2804     0131  30DD               	movlw	221
  2805     0132  00F0               	movwf	??_TrataInt
  2806     0133                     u169_27:
  2807     0133  0BF0               	decfsz	??_TrataInt,f
  2808     0134  2933               	goto	u169_27
  2809     0135  0BF1               	decfsz	??_TrataInt+1,f
  2810     0136  2933               	goto	u169_27
  2811     0137  2938               	nop2
  2812                           
  2813                           ;main.c: 106:         }
  2814     0138  2944               	goto	i1l1463
  2815     0139                     i1l1457:
  2816     0139  307F               	movlw	127
  2817     013A  1283               	bcf	3,5	;RP0=0, select bank0
  2818     013B  1303               	bcf	3,6	;RP1=0, select bank0
  2819     013C  062F               	xorwf	_SE,w
  2820     013D  0430               	iorwf	_SE+1,w
  2821     013E  1D03               	btfss	3,2
  2822     013F  2941               	goto	u66_21
  2823     0140  2942               	goto	u66_20
  2824     0141                     u66_21:
  2825     0141  2944               	goto	i1l1463
  2826     0142                     u66_20:
  2827     0142                     i1l1459:
  2828                           
  2829                           ;main.c: 108:             PORTCbits.RC4 = 0;
  2830     0142  1207               	bcf	7,4	;volatile
  2831     0143  292F               	goto	i1l1455
  2832     0144                     i1l1463:
  2833                           
  2834                           ;main.c: 111:         if(SA != 127 && B != 127 && SE != 127)
  2835     0144  307F               	movlw	127
  2836     0145  1283               	bcf	3,5	;RP0=0, select bank0
  2837     0146  1303               	bcf	3,6	;RP1=0, select bank0
  2838     0147  062D               	xorwf	_SA,w
  2839     0148  042E               	iorwf	_SA+1,w
  2840     0149  1903               	btfsc	3,2
  2841     014A  294C               	goto	u67_21
  2842     014B  294D               	goto	u67_20
  2843     014C                     u67_21:
  2844     014C  2A9B               	goto	i1l1533
  2845     014D                     u67_20:
  2846     014D                     i1l1465:
  2847     014D  307F               	movlw	127
  2848     014E  0633               	xorwf	_B,w
  2849     014F  0434               	iorwf	_B+1,w
  2850     0150  1903               	btfsc	3,2
  2851     0151  2953               	goto	u68_21
  2852     0152  2954               	goto	u68_20
  2853     0153                     u68_21:
  2854     0153  2A9B               	goto	i1l1533
  2855     0154                     u68_20:
  2856     0154                     i1l1467:
  2857     0154  307F               	movlw	127
  2858     0155  062F               	xorwf	_SE,w
  2859     0156  0430               	iorwf	_SE+1,w
  2860     0157  1903               	btfsc	3,2
  2861     0158  295A               	goto	u69_21
  2862     0159  295B               	goto	u69_20
  2863     015A                     u69_21:
  2864     015A  2A9B               	goto	i1l1533
  2865     015B                     u69_20:
  2866     015B                     i1l1469:
  2867                           
  2868                           ;main.c: 112:         {;main.c: 113:             valor = 0;
  2869     015B  01B5               	clrf	_valor
  2870     015C  01B6               	clrf	_valor+1
  2871     015D                     i1l1471:
  2872                           
  2873                           ;main.c: 114:             PORTCbits.RC1 = 0;
  2874     015D  1087               	bcf	7,1	;volatile
  2875     015E                     i1l1473:
  2876                           
  2877                           ;main.c: 115:             _delay((unsigned long)((50)*(4000000/4000.0)));
  2878     015E  3041               	movlw	65
  2879     015F  00F1               	movwf	??_TrataInt+1
  2880     0160  30EE               	movlw	238
  2881     0161  00F0               	movwf	??_TrataInt
  2882     0162                     u170_27:
  2883     0162  0BF0               	decfsz	??_TrataInt,f
  2884     0163  2962               	goto	u170_27
  2885     0164  0BF1               	decfsz	??_TrataInt+1,f
  2886     0165  2962               	goto	u170_27
  2887     0166  0000               	nop
  2888     0167                     i1l1475:
  2889                           
  2890                           ;main.c: 116:             PORTCbits.RC0 = 0;
  2891     0167  1283               	bcf	3,5	;RP0=0, select bank0
  2892     0168  1303               	bcf	3,6	;RP1=0, select bank0
  2893     0169  1007               	bcf	7,0	;volatile
  2894     016A                     i1l1477:
  2895                           
  2896                           ;main.c: 117:             _delay((unsigned long)((50)*(4000000/4000.0)));
  2897     016A  3041               	movlw	65
  2898     016B  00F1               	movwf	??_TrataInt+1
  2899     016C  30EE               	movlw	238
  2900     016D  00F0               	movwf	??_TrataInt
  2901     016E                     u171_27:
  2902     016E  0BF0               	decfsz	??_TrataInt,f
  2903     016F  296E               	goto	u171_27
  2904     0170  0BF1               	decfsz	??_TrataInt+1,f
  2905     0171  296E               	goto	u171_27
  2906     0172  0000               	nop
  2907     0173                     i1l1479:
  2908                           
  2909                           ;main.c: 119:             if(SA > 127 && B > 127)
  2910     0173  1283               	bcf	3,5	;RP0=0, select bank0
  2911     0174  1303               	bcf	3,6	;RP1=0, select bank0
  2912     0175  082E               	movf	_SA+1,w
  2913     0176  3A80               	xorlw	128
  2914     0177  00FF               	movwf	btemp+1
  2915     0178  3080               	movlw	128
  2916     0179  027F               	subwf	btemp+1,w
  2917     017A  1D03               	skipz
  2918     017B  297E               	goto	u70_25
  2919     017C  3080               	movlw	128
  2920     017D  022D               	subwf	_SA,w
  2921     017E                     u70_25:
  2922     017E  1C03               	skipc
  2923     017F  2981               	goto	u70_21
  2924     0180  2982               	goto	u70_20
  2925     0181                     u70_21:
  2926     0181  29B6               	goto	i1l1491
  2927     0182                     u70_20:
  2928     0182                     i1l1481:
  2929     0182  1283               	bcf	3,5	;RP0=0, select bank0
  2930     0183  1303               	bcf	3,6	;RP1=0, select bank0
  2931     0184  0834               	movf	_B+1,w
  2932     0185  3A80               	xorlw	128
  2933     0186  00FF               	movwf	btemp+1
  2934     0187  3080               	movlw	128
  2935     0188  027F               	subwf	btemp+1,w
  2936     0189  1D03               	skipz
  2937     018A  298D               	goto	u71_25
  2938     018B  3080               	movlw	128
  2939     018C  0233               	subwf	_B,w
  2940     018D                     u71_25:
  2941     018D  1C03               	skipc
  2942     018E  2990               	goto	u71_21
  2943     018F  2991               	goto	u71_20
  2944     0190                     u71_21:
  2945     0190  29B6               	goto	i1l1491
  2946     0191                     u71_20:
  2947     0191                     i1l1483:
  2948                           
  2949                           ;main.c: 120:             {;main.c: 121:                 PORTCbits.RC3 = 1;
  2950     0191  1283               	bcf	3,5	;RP0=0, select bank0
  2951     0192  1303               	bcf	3,6	;RP1=0, select bank0
  2952     0193  1587               	bsf	7,3	;volatile
  2953     0194                     i1l1485:
  2954                           
  2955                           ;main.c: 122:                 _delay((unsigned long)((100)*(4000000/4000.0)));
  2956     0194  3082               	movlw	130
  2957     0195  00F1               	movwf	??_TrataInt+1
  2958     0196  30DD               	movlw	221
  2959     0197  00F0               	movwf	??_TrataInt
  2960     0198                     u172_27:
  2961     0198  0BF0               	decfsz	??_TrataInt,f
  2962     0199  2998               	goto	u172_27
  2963     019A  0BF1               	decfsz	??_TrataInt+1,f
  2964     019B  2998               	goto	u172_27
  2965     019C  299D               	nop2
  2966     019D                     i1l1487:
  2967                           
  2968                           ;main.c: 123:                 PORTCbits.RC3 = 0;
  2969     019D  1283               	bcf	3,5	;RP0=0, select bank0
  2970     019E  1303               	bcf	3,6	;RP1=0, select bank0
  2971     019F  1187               	bcf	7,3	;volatile
  2972                           
  2973                           ;main.c: 124:                 _delay((unsigned long)((100)*(4000000/4000.0)));
  2974     01A0  3082               	movlw	130
  2975     01A1  00F1               	movwf	??_TrataInt+1
  2976     01A2  30DD               	movlw	221
  2977     01A3  00F0               	movwf	??_TrataInt
  2978     01A4                     u173_27:
  2979     01A4  0BF0               	decfsz	??_TrataInt,f
  2980     01A5  29A4               	goto	u173_27
  2981     01A6  0BF1               	decfsz	??_TrataInt+1,f
  2982     01A7  29A4               	goto	u173_27
  2983     01A8  29A9               	nop2
  2984     01A9                     i1l1489:
  2985                           
  2986                           ;main.c: 125:                 PORTCbits.RC5 = 0;
  2987     01A9  1283               	bcf	3,5	;RP0=0, select bank0
  2988     01AA  1303               	bcf	3,6	;RP1=0, select bank0
  2989     01AB  1287               	bcf	7,5	;volatile
  2990                           
  2991                           ;main.c: 126:                 _delay((unsigned long)((100)*(4000000/4000.0)));
  2992     01AC  3082               	movlw	130
  2993     01AD  00F1               	movwf	??_TrataInt+1
  2994     01AE  30DD               	movlw	221
  2995     01AF  00F0               	movwf	??_TrataInt
  2996     01B0                     u174_27:
  2997     01B0  0BF0               	decfsz	??_TrataInt,f
  2998     01B1  29B0               	goto	u174_27
  2999     01B2  0BF1               	decfsz	??_TrataInt+1,f
  3000     01B3  29B0               	goto	u174_27
  3001     01B4  29B5               	nop2
  3002                           
  3003                           ;main.c: 127:             }
  3004     01B5  2AB8               	goto	i1l1541
  3005     01B6                     i1l1491:
  3006     01B6  1283               	bcf	3,5	;RP0=0, select bank0
  3007     01B7  1303               	bcf	3,6	;RP1=0, select bank0
  3008     01B8  082E               	movf	_SA+1,w
  3009     01B9  3A80               	xorlw	128
  3010     01BA  00FF               	movwf	btemp+1
  3011     01BB  3080               	movlw	128
  3012     01BC  027F               	subwf	btemp+1,w
  3013     01BD  1D03               	skipz
  3014     01BE  29C1               	goto	u72_25
  3015     01BF  307F               	movlw	127
  3016     01C0  022D               	subwf	_SA,w
  3017     01C1                     u72_25:
  3018     01C1  1803               	skipnc
  3019     01C2  29C4               	goto	u72_21
  3020     01C3  29C5               	goto	u72_20
  3021     01C4                     u72_21:
  3022     01C4  29ED               	goto	i1l1501
  3023     01C5                     u72_20:
  3024     01C5                     i1l1493:
  3025     01C5  1283               	bcf	3,5	;RP0=0, select bank0
  3026     01C6  1303               	bcf	3,6	;RP1=0, select bank0
  3027     01C7  0834               	movf	_B+1,w
  3028     01C8  3A80               	xorlw	128
  3029     01C9  00FF               	movwf	btemp+1
  3030     01CA  3080               	movlw	128
  3031     01CB  027F               	subwf	btemp+1,w
  3032     01CC  1D03               	skipz
  3033     01CD  29D0               	goto	u73_25
  3034     01CE  307F               	movlw	127
  3035     01CF  0233               	subwf	_B,w
  3036     01D0                     u73_25:
  3037     01D0  1803               	skipnc
  3038     01D1  29D3               	goto	u73_21
  3039     01D2  29D4               	goto	u73_20
  3040     01D3                     u73_21:
  3041     01D3  29ED               	goto	i1l1501
  3042     01D4                     u73_20:
  3043     01D4                     i1l1495:
  3044                           
  3045                           ;main.c: 129:             {;main.c: 130:                 PORTCbits.RC3 = 1;
  3046     01D4  1283               	bcf	3,5	;RP0=0, select bank0
  3047     01D5  1303               	bcf	3,6	;RP1=0, select bank0
  3048     01D6  1587               	bsf	7,3	;volatile
  3049     01D7                     i1l1497:
  3050                           
  3051                           ;main.c: 131:                 _delay((unsigned long)((100)*(4000000/4000.0)));
  3052     01D7  3082               	movlw	130
  3053     01D8  00F1               	movwf	??_TrataInt+1
  3054     01D9  30DD               	movlw	221
  3055     01DA  00F0               	movwf	??_TrataInt
  3056     01DB                     u175_27:
  3057     01DB  0BF0               	decfsz	??_TrataInt,f
  3058     01DC  29DB               	goto	u175_27
  3059     01DD  0BF1               	decfsz	??_TrataInt+1,f
  3060     01DE  29DB               	goto	u175_27
  3061     01DF  29E0               	nop2
  3062     01E0                     i1l1499:
  3063                           
  3064                           ;main.c: 132:                 PORTCbits.RC5 = 1;
  3065     01E0  1283               	bcf	3,5	;RP0=0, select bank0
  3066     01E1  1303               	bcf	3,6	;RP1=0, select bank0
  3067     01E2  1687               	bsf	7,5	;volatile
  3068                           
  3069                           ;main.c: 133:                 _delay((unsigned long)((100)*(4000000/4000.0)));
  3070     01E3  3082               	movlw	130
  3071     01E4  00F1               	movwf	??_TrataInt+1
  3072     01E5  30DD               	movlw	221
  3073     01E6  00F0               	movwf	??_TrataInt
  3074     01E7                     u176_27:
  3075     01E7  0BF0               	decfsz	??_TrataInt,f
  3076     01E8  29E7               	goto	u176_27
  3077     01E9  0BF1               	decfsz	??_TrataInt+1,f
  3078     01EA  29E7               	goto	u176_27
  3079     01EB  29EC               	nop2
  3080                           
  3081                           ;main.c: 134:             }
  3082     01EC  2AB8               	goto	i1l1541
  3083     01ED                     i1l1501:
  3084     01ED  1283               	bcf	3,5	;RP0=0, select bank0
  3085     01EE  1303               	bcf	3,6	;RP1=0, select bank0
  3086     01EF  082E               	movf	_SA+1,w
  3087     01F0  3A80               	xorlw	128
  3088     01F1  00FF               	movwf	btemp+1
  3089     01F2  3080               	movlw	128
  3090     01F3  027F               	subwf	btemp+1,w
  3091     01F4  1D03               	skipz
  3092     01F5  29F8               	goto	u74_25
  3093     01F6  3080               	movlw	128
  3094     01F7  022D               	subwf	_SA,w
  3095     01F8                     u74_25:
  3096     01F8  1C03               	skipc
  3097     01F9  29FB               	goto	u74_21
  3098     01FA  29FC               	goto	u74_20
  3099     01FB                     u74_21:
  3100     01FB  2A54               	goto	i1l1519
  3101     01FC                     u74_20:
  3102     01FC                     i1l1503:
  3103     01FC  1283               	bcf	3,5	;RP0=0, select bank0
  3104     01FD  1303               	bcf	3,6	;RP1=0, select bank0
  3105     01FE  0834               	movf	_B+1,w
  3106     01FF  3A80               	xorlw	128
  3107     0200  00FF               	movwf	btemp+1
  3108     0201  3080               	movlw	128
  3109     0202  027F               	subwf	btemp+1,w
  3110     0203  1D03               	skipz
  3111     0204  2A07               	goto	u75_25
  3112     0205  307F               	movlw	127
  3113     0206  0233               	subwf	_B,w
  3114     0207                     u75_25:
  3115     0207  1803               	skipnc
  3116     0208  2A0A               	goto	u75_21
  3117     0209  2A0B               	goto	u75_20
  3118     020A                     u75_21:
  3119     020A  2A54               	goto	i1l1519
  3120     020B                     u75_20:
  3121     020B                     i1l1505:
  3122                           
  3123                           ;main.c: 136:             {;main.c: 137:                 PORTCbits.RC3 = 1;
  3124     020B  1283               	bcf	3,5	;RP0=0, select bank0
  3125     020C  1303               	bcf	3,6	;RP1=0, select bank0
  3126     020D  1587               	bsf	7,3	;volatile
  3127     020E                     i1l1507:
  3128                           
  3129                           ;main.c: 138:                 _delay((unsigned long)((50)*(4000000/4000.0)));
  3130     020E  3041               	movlw	65
  3131     020F  00F1               	movwf	??_TrataInt+1
  3132     0210  30EE               	movlw	238
  3133     0211  00F0               	movwf	??_TrataInt
  3134     0212                     u177_27:
  3135     0212  0BF0               	decfsz	??_TrataInt,f
  3136     0213  2A12               	goto	u177_27
  3137     0214  0BF1               	decfsz	??_TrataInt+1,f
  3138     0215  2A12               	goto	u177_27
  3139     0216  0000               	nop
  3140     0217                     i1l1509:
  3141                           
  3142                           ;main.c: 139:                 PORTCbits.RC3 = 0;
  3143     0217  1283               	bcf	3,5	;RP0=0, select bank0
  3144     0218  1303               	bcf	3,6	;RP1=0, select bank0
  3145     0219  1187               	bcf	7,3	;volatile
  3146                           
  3147                           ;main.c: 140:                 _delay((unsigned long)((50)*(4000000/4000.0)));
  3148     021A  3041               	movlw	65
  3149     021B  00F1               	movwf	??_TrataInt+1
  3150     021C  30EE               	movlw	238
  3151     021D  00F0               	movwf	??_TrataInt
  3152     021E                     u178_27:
  3153     021E  0BF0               	decfsz	??_TrataInt,f
  3154     021F  2A1E               	goto	u178_27
  3155     0220  0BF1               	decfsz	??_TrataInt+1,f
  3156     0221  2A1E               	goto	u178_27
  3157     0222  0000               	nop
  3158     0223                     i1l1511:
  3159                           
  3160                           ;main.c: 141:                 PORTCbits.RC3 = 1;
  3161     0223  1283               	bcf	3,5	;RP0=0, select bank0
  3162     0224  1303               	bcf	3,6	;RP1=0, select bank0
  3163     0225  1587               	bsf	7,3	;volatile
  3164                           
  3165                           ;main.c: 142:                 _delay((unsigned long)((50)*(4000000/4000.0)));
  3166     0226  3041               	movlw	65
  3167     0227  00F1               	movwf	??_TrataInt+1
  3168     0228  30EE               	movlw	238
  3169     0229  00F0               	movwf	??_TrataInt
  3170     022A                     u179_27:
  3171     022A  0BF0               	decfsz	??_TrataInt,f
  3172     022B  2A2A               	goto	u179_27
  3173     022C  0BF1               	decfsz	??_TrataInt+1,f
  3174     022D  2A2A               	goto	u179_27
  3175     022E  0000               	nop
  3176     022F                     i1l1513:
  3177                           
  3178                           ;main.c: 143:                 PORTCbits.RC3 = 0;
  3179     022F  1283               	bcf	3,5	;RP0=0, select bank0
  3180     0230  1303               	bcf	3,6	;RP1=0, select bank0
  3181     0231  1187               	bcf	7,3	;volatile
  3182                           
  3183                           ;main.c: 144:                 _delay((unsigned long)((50)*(4000000/4000.0)));
  3184     0232  3041               	movlw	65
  3185     0233  00F1               	movwf	??_TrataInt+1
  3186     0234  30EE               	movlw	238
  3187     0235  00F0               	movwf	??_TrataInt
  3188     0236                     u180_27:
  3189     0236  0BF0               	decfsz	??_TrataInt,f
  3190     0237  2A36               	goto	u180_27
  3191     0238  0BF1               	decfsz	??_TrataInt+1,f
  3192     0239  2A36               	goto	u180_27
  3193     023A  0000               	nop
  3194     023B                     i1l1515:
  3195                           
  3196                           ;main.c: 145:                 PORTCbits.RC3 = 1;
  3197     023B  1283               	bcf	3,5	;RP0=0, select bank0
  3198     023C  1303               	bcf	3,6	;RP1=0, select bank0
  3199     023D  1587               	bsf	7,3	;volatile
  3200                           
  3201                           ;main.c: 146:                 _delay((unsigned long)((50)*(4000000/4000.0)));
  3202     023E  3041               	movlw	65
  3203     023F  00F1               	movwf	??_TrataInt+1
  3204     0240  30EE               	movlw	238
  3205     0241  00F0               	movwf	??_TrataInt
  3206     0242                     u181_27:
  3207     0242  0BF0               	decfsz	??_TrataInt,f
  3208     0243  2A42               	goto	u181_27
  3209     0244  0BF1               	decfsz	??_TrataInt+1,f
  3210     0245  2A42               	goto	u181_27
  3211     0246  0000               	nop
  3212     0247                     i1l1517:
  3213                           
  3214                           ;main.c: 147:                 PORTCbits.RC3 = 0;
  3215     0247  1283               	bcf	3,5	;RP0=0, select bank0
  3216     0248  1303               	bcf	3,6	;RP1=0, select bank0
  3217     0249  1187               	bcf	7,3	;volatile
  3218                           
  3219                           ;main.c: 148:                 _delay((unsigned long)((50)*(4000000/4000.0)));
  3220     024A  3041               	movlw	65
  3221     024B  00F1               	movwf	??_TrataInt+1
  3222     024C  30EE               	movlw	238
  3223     024D  00F0               	movwf	??_TrataInt
  3224     024E                     u182_27:
  3225     024E  0BF0               	decfsz	??_TrataInt,f
  3226     024F  2A4E               	goto	u182_27
  3227     0250  0BF1               	decfsz	??_TrataInt+1,f
  3228     0251  2A4E               	goto	u182_27
  3229     0252  0000               	nop
  3230                           
  3231                           ;main.c: 149:             }
  3232     0253  2AB8               	goto	i1l1541
  3233     0254                     i1l1519:
  3234     0254  1283               	bcf	3,5	;RP0=0, select bank0
  3235     0255  1303               	bcf	3,6	;RP1=0, select bank0
  3236     0256  082E               	movf	_SA+1,w
  3237     0257  3A80               	xorlw	128
  3238     0258  00FF               	movwf	btemp+1
  3239     0259  3080               	movlw	128
  3240     025A  027F               	subwf	btemp+1,w
  3241     025B  1D03               	skipz
  3242     025C  2A5F               	goto	u76_25
  3243     025D  307F               	movlw	127
  3244     025E  022D               	subwf	_SA,w
  3245     025F                     u76_25:
  3246     025F  1803               	skipnc
  3247     0260  2A62               	goto	u76_21
  3248     0261  2A63               	goto	u76_20
  3249     0262                     u76_21:
  3250     0262  2A9A               	goto	i1l84
  3251     0263                     u76_20:
  3252     0263                     i1l1521:
  3253     0263  1283               	bcf	3,5	;RP0=0, select bank0
  3254     0264  1303               	bcf	3,6	;RP1=0, select bank0
  3255     0265  0834               	movf	_B+1,w
  3256     0266  3A80               	xorlw	128
  3257     0267  00FF               	movwf	btemp+1
  3258     0268  3080               	movlw	128
  3259     0269  027F               	subwf	btemp+1,w
  3260     026A  1D03               	skipz
  3261     026B  2A6E               	goto	u77_25
  3262     026C  3080               	movlw	128
  3263     026D  0233               	subwf	_B,w
  3264     026E                     u77_25:
  3265     026E  1C03               	skipc
  3266     026F  2A71               	goto	u77_21
  3267     0270  2A72               	goto	u77_20
  3268     0271                     u77_21:
  3269     0271  2A9A               	goto	i1l84
  3270     0272                     u77_20:
  3271     0272                     i1l1523:
  3272                           
  3273                           ;main.c: 151:             {;main.c: 152:                 PORTCbits.RC3 = 1;
  3274     0272  1283               	bcf	3,5	;RP0=0, select bank0
  3275     0273  1303               	bcf	3,6	;RP1=0, select bank0
  3276     0274  1587               	bsf	7,3	;volatile
  3277     0275                     i1l1525:
  3278                           
  3279                           ;main.c: 153:                 _delay((unsigned long)((50)*(4000000/4000.0)));
  3280     0275  3041               	movlw	65
  3281     0276  00F1               	movwf	??_TrataInt+1
  3282     0277  30EE               	movlw	238
  3283     0278  00F0               	movwf	??_TrataInt
  3284     0279                     u183_27:
  3285     0279  0BF0               	decfsz	??_TrataInt,f
  3286     027A  2A79               	goto	u183_27
  3287     027B  0BF1               	decfsz	??_TrataInt+1,f
  3288     027C  2A79               	goto	u183_27
  3289     027D  0000               	nop
  3290     027E                     i1l1527:
  3291                           
  3292                           ;main.c: 154:                 PORTCbits.RC3 = 0;
  3293     027E  1283               	bcf	3,5	;RP0=0, select bank0
  3294     027F  1303               	bcf	3,6	;RP1=0, select bank0
  3295     0280  1187               	bcf	7,3	;volatile
  3296                           
  3297                           ;main.c: 155:                 _delay((unsigned long)((50)*(4000000/4000.0)));
  3298     0281  3041               	movlw	65
  3299     0282  00F1               	movwf	??_TrataInt+1
  3300     0283  30EE               	movlw	238
  3301     0284  00F0               	movwf	??_TrataInt
  3302     0285                     u184_27:
  3303     0285  0BF0               	decfsz	??_TrataInt,f
  3304     0286  2A85               	goto	u184_27
  3305     0287  0BF1               	decfsz	??_TrataInt+1,f
  3306     0288  2A85               	goto	u184_27
  3307     0289  0000               	nop
  3308     028A                     i1l1529:
  3309                           
  3310                           ;main.c: 156:                 PORTCbits.RC3 = 1;
  3311     028A  1283               	bcf	3,5	;RP0=0, select bank0
  3312     028B  1303               	bcf	3,6	;RP1=0, select bank0
  3313     028C  1587               	bsf	7,3	;volatile
  3314                           
  3315                           ;main.c: 157:                 _delay((unsigned long)((50)*(4000000/4000.0)));
  3316     028D  3041               	movlw	65
  3317     028E  00F1               	movwf	??_TrataInt+1
  3318     028F  30EE               	movlw	238
  3319     0290  00F0               	movwf	??_TrataInt
  3320     0291                     u185_27:
  3321     0291  0BF0               	decfsz	??_TrataInt,f
  3322     0292  2A91               	goto	u185_27
  3323     0293  0BF1               	decfsz	??_TrataInt+1,f
  3324     0294  2A91               	goto	u185_27
  3325     0295  0000               	nop
  3326     0296                     i1l1531:
  3327                           
  3328                           ;main.c: 158:                 PORTCbits.RC3 = 0;
  3329     0296  1283               	bcf	3,5	;RP0=0, select bank0
  3330     0297  1303               	bcf	3,6	;RP1=0, select bank0
  3331     0298  1187               	bcf	7,3	;volatile
  3332     0299  2AB8               	goto	i1l1541
  3333     029A                     i1l84:
  3334                           
  3335                           ;main.c: 160:         }
  3336     029A  2AB8               	goto	i1l1541
  3337     029B                     i1l1533:
  3338     029B  307F               	movlw	127
  3339     029C  062D               	xorwf	_SA,w
  3340     029D  042E               	iorwf	_SA+1,w
  3341     029E  1D03               	btfss	3,2
  3342     029F  2AA1               	goto	u78_21
  3343     02A0  2AA2               	goto	u78_20
  3344     02A1                     u78_21:
  3345     02A1  2AB8               	goto	i1l1541
  3346     02A2                     u78_20:
  3347     02A2                     i1l1535:
  3348                           
  3349                           ;main.c: 162:         {;main.c: 163:             PORTCbits.RC3 = 0;
  3350     02A2  1187               	bcf	7,3	;volatile
  3351     02A3                     i1l1537:
  3352                           
  3353                           ;main.c: 164:             _delay((unsigned long)((100)*(4000000/4000.0)));
  3354     02A3  3082               	movlw	130
  3355     02A4  00F1               	movwf	??_TrataInt+1
  3356     02A5  30DD               	movlw	221
  3357     02A6  00F0               	movwf	??_TrataInt
  3358     02A7                     u186_27:
  3359     02A7  0BF0               	decfsz	??_TrataInt,f
  3360     02A8  2AA7               	goto	u186_27
  3361     02A9  0BF1               	decfsz	??_TrataInt+1,f
  3362     02AA  2AA7               	goto	u186_27
  3363     02AB  2AAC               	nop2
  3364     02AC                     i1l1539:
  3365                           
  3366                           ;main.c: 165:             PORTCbits.RC5 = 0;
  3367     02AC  1283               	bcf	3,5	;RP0=0, select bank0
  3368     02AD  1303               	bcf	3,6	;RP1=0, select bank0
  3369     02AE  1287               	bcf	7,5	;volatile
  3370                           
  3371                           ;main.c: 166:             _delay((unsigned long)((100)*(4000000/4000.0)));
  3372     02AF  3082               	movlw	130
  3373     02B0  00F1               	movwf	??_TrataInt+1
  3374     02B1  30DD               	movlw	221
  3375     02B2  00F0               	movwf	??_TrataInt
  3376     02B3                     u187_27:
  3377     02B3  0BF0               	decfsz	??_TrataInt,f
  3378     02B4  2AB3               	goto	u187_27
  3379     02B5  0BF1               	decfsz	??_TrataInt+1,f
  3380     02B6  2AB3               	goto	u187_27
  3381     02B7  2AB8               	nop2
  3382     02B8                     i1l1541:
  3383                           
  3384                           ;main.c: 170:     if (TMR1IF)
  3385     02B8  1283               	bcf	3,5	;RP0=0, select bank0
  3386     02B9  1303               	bcf	3,6	;RP1=0, select bank0
  3387     02BA  1C0C               	btfss	12,0	;volatile
  3388     02BB  2ABD               	goto	u79_21
  3389     02BC  2ABE               	goto	u79_20
  3390     02BD                     u79_21:
  3391     02BD  2B43               	goto	i1l96
  3392     02BE                     u79_20:
  3393     02BE                     i1l1543:
  3394                           
  3395                           ;main.c: 171:      {;main.c: 172:         PIR1bits.TMR1IF = 0;
  3396     02BE  100C               	bcf	12,0	;volatile
  3397     02BF                     i1l1545:
  3398                           
  3399                           ;main.c: 173:         TMR1L = 0xDC;
  3400     02BF  30DC               	movlw	220
  3401     02C0  008E               	movwf	14	;volatile
  3402                           
  3403                           ;main.c: 174:         TMR1H = 0x0B;
  3404     02C1  300B               	movlw	11
  3405     02C2  008F               	movwf	15	;volatile
  3406     02C3                     i1l1547:
  3407                           
  3408                           ;main.c: 177:         if (conta == 4 && valor == 1){
  3409     02C3  3004               	movlw	4
  3410     02C4  0677               	xorwf	_conta,w
  3411     02C5  0478               	iorwf	_conta+1,w
  3412     02C6  1D03               	btfss	3,2
  3413     02C7  2AC9               	goto	u80_21
  3414     02C8  2ACA               	goto	u80_20
  3415     02C9                     u80_21:
  3416     02C9  2B1F               	goto	i1l1569
  3417     02CA                     u80_20:
  3418     02CA                     i1l1549:
  3419     02CA  0335               	decf	_valor,w
  3420     02CB  0436               	iorwf	_valor+1,w
  3421     02CC  1D03               	btfss	3,2
  3422     02CD  2ACF               	goto	u81_21
  3423     02CE  2AD0               	goto	u81_20
  3424     02CF                     u81_21:
  3425     02CF  2B1F               	goto	i1l1569
  3426     02D0                     u81_20:
  3427     02D0                     i1l1551:
  3428                           
  3429                           ;main.c: 178:             PORTCbits.RC4 = 0;
  3430     02D0  1207               	bcf	7,4	;volatile
  3431     02D1                     i1l1553:
  3432                           
  3433                           ;main.c: 179:             _delay((unsigned long)((100)*(4000000/4000.0)));
  3434     02D1  3082               	movlw	130
  3435     02D2  00F1               	movwf	??_TrataInt+1
  3436     02D3  30DD               	movlw	221
  3437     02D4  00F0               	movwf	??_TrataInt
  3438     02D5                     u188_27:
  3439     02D5  0BF0               	decfsz	??_TrataInt,f
  3440     02D6  2AD5               	goto	u188_27
  3441     02D7  0BF1               	decfsz	??_TrataInt+1,f
  3442     02D8  2AD5               	goto	u188_27
  3443     02D9  2ADA               	nop2
  3444     02DA                     i1l1555:
  3445                           
  3446                           ;main.c: 180:             PORTCbits.RC1 = 0;
  3447     02DA  1283               	bcf	3,5	;RP0=0, select bank0
  3448     02DB  1303               	bcf	3,6	;RP1=0, select bank0
  3449     02DC  1087               	bcf	7,1	;volatile
  3450                           
  3451                           ;main.c: 181:             _delay((unsigned long)((100)*(4000000/4000.0)));
  3452     02DD  3082               	movlw	130
  3453     02DE  00F1               	movwf	??_TrataInt+1
  3454     02DF  30DD               	movlw	221
  3455     02E0  00F0               	movwf	??_TrataInt
  3456     02E1                     u189_27:
  3457     02E1  0BF0               	decfsz	??_TrataInt,f
  3458     02E2  2AE1               	goto	u189_27
  3459     02E3  0BF1               	decfsz	??_TrataInt+1,f
  3460     02E4  2AE1               	goto	u189_27
  3461     02E5  2AE6               	nop2
  3462     02E6                     i1l1557:
  3463                           
  3464                           ;main.c: 182:             PORTCbits.RC2 = 0;
  3465     02E6  1283               	bcf	3,5	;RP0=0, select bank0
  3466     02E7  1303               	bcf	3,6	;RP1=0, select bank0
  3467     02E8  1107               	bcf	7,2	;volatile
  3468                           
  3469                           ;main.c: 183:             _delay((unsigned long)((100)*(4000000/4000.0)));
  3470     02E9  3082               	movlw	130
  3471     02EA  00F1               	movwf	??_TrataInt+1
  3472     02EB  30DD               	movlw	221
  3473     02EC  00F0               	movwf	??_TrataInt
  3474     02ED                     u190_27:
  3475     02ED  0BF0               	decfsz	??_TrataInt,f
  3476     02EE  2AED               	goto	u190_27
  3477     02EF  0BF1               	decfsz	??_TrataInt+1,f
  3478     02F0  2AED               	goto	u190_27
  3479     02F1  2AF2               	nop2
  3480     02F2                     i1l1559:
  3481                           
  3482                           ;main.c: 184:             PORTCbits.RC3 = 0;
  3483     02F2  1283               	bcf	3,5	;RP0=0, select bank0
  3484     02F3  1303               	bcf	3,6	;RP1=0, select bank0
  3485     02F4  1187               	bcf	7,3	;volatile
  3486                           
  3487                           ;main.c: 185:             _delay((unsigned long)((100)*(4000000/4000.0)));
  3488     02F5  3082               	movlw	130
  3489     02F6  00F1               	movwf	??_TrataInt+1
  3490     02F7  30DD               	movlw	221
  3491     02F8  00F0               	movwf	??_TrataInt
  3492     02F9                     u191_27:
  3493     02F9  0BF0               	decfsz	??_TrataInt,f
  3494     02FA  2AF9               	goto	u191_27
  3495     02FB  0BF1               	decfsz	??_TrataInt+1,f
  3496     02FC  2AF9               	goto	u191_27
  3497     02FD  2AFE               	nop2
  3498     02FE                     i1l1561:
  3499                           
  3500                           ;main.c: 186:             PORTCbits.RC0 = 0;
  3501     02FE  1283               	bcf	3,5	;RP0=0, select bank0
  3502     02FF  1303               	bcf	3,6	;RP1=0, select bank0
  3503     0300  1007               	bcf	7,0	;volatile
  3504                           
  3505                           ;main.c: 187:             _delay((unsigned long)((100)*(4000000/4000.0)));
  3506     0301  3082               	movlw	130
  3507     0302  00F1               	movwf	??_TrataInt+1
  3508     0303  30DD               	movlw	221
  3509     0304  00F0               	movwf	??_TrataInt
  3510     0305                     u192_27:
  3511     0305  0BF0               	decfsz	??_TrataInt,f
  3512     0306  2B05               	goto	u192_27
  3513     0307  0BF1               	decfsz	??_TrataInt+1,f
  3514     0308  2B05               	goto	u192_27
  3515     0309  2B0A               	nop2
  3516     030A                     i1l1563:
  3517                           
  3518                           ;main.c: 188:             PORTCbits.RC5 = 0;
  3519     030A  1283               	bcf	3,5	;RP0=0, select bank0
  3520     030B  1303               	bcf	3,6	;RP1=0, select bank0
  3521     030C  1287               	bcf	7,5	;volatile
  3522                           
  3523                           ;main.c: 189:             _delay((unsigned long)((100)*(4000000/4000.0)));
  3524     030D  3082               	movlw	130
  3525     030E  00F1               	movwf	??_TrataInt+1
  3526     030F  30DD               	movlw	221
  3527     0310  00F0               	movwf	??_TrataInt
  3528     0311                     u193_27:
  3529     0311  0BF0               	decfsz	??_TrataInt,f
  3530     0312  2B11               	goto	u193_27
  3531     0313  0BF1               	decfsz	??_TrataInt+1,f
  3532     0314  2B11               	goto	u193_27
  3533     0315  2B16               	nop2
  3534     0316                     i1l1565:
  3535                           
  3536                           ;main.c: 190:             conta = 0;
  3537     0316  01F7               	clrf	_conta
  3538     0317  01F8               	clrf	_conta+1
  3539     0318                     i1l1567:
  3540                           
  3541                           ;main.c: 191:             paradas++;
  3542     0318  3001               	movlw	1
  3543     0319  07F5               	addwf	_paradas,f
  3544     031A  1803               	skipnc
  3545     031B  0AF6               	incf	_paradas+1,f
  3546     031C  3000               	movlw	0
  3547     031D  07F6               	addwf	_paradas+1,f
  3548                           
  3549                           ;main.c: 192:         }
  3550     031E  2B43               	goto	i1l96
  3551     031F                     i1l1569:
  3552     031F  3004               	movlw	4
  3553     0320  0677               	xorwf	_conta,w
  3554     0321  0478               	iorwf	_conta+1,w
  3555     0322  1903               	btfsc	3,2
  3556     0323  2B25               	goto	u82_21
  3557     0324  2B26               	goto	u82_20
  3558     0325                     u82_21:
  3559     0325  2B43               	goto	i1l92
  3560     0326                     u82_20:
  3561     0326                     i1l1571:
  3562     0326  0335               	decf	_valor,w
  3563     0327  0436               	iorwf	_valor+1,w
  3564     0328  1D03               	btfss	3,2
  3565     0329  2B2B               	goto	u83_21
  3566     032A  2B2C               	goto	u83_20
  3567     032B                     u83_21:
  3568     032B  2B43               	goto	i1l92
  3569     032C                     u83_20:
  3570     032C                     i1l1573:
  3571                           
  3572                           ;main.c: 194:         {;main.c: 195:             PORTCbits.RC1 = 1;
  3573     032C  1487               	bsf	7,1	;volatile
  3574     032D                     i1l1575:
  3575                           
  3576                           ;main.c: 196:             _delay((unsigned long)((100)*(4000000/4000.0)));
  3577     032D  3082               	movlw	130
  3578     032E  00F1               	movwf	??_TrataInt+1
  3579     032F  30DD               	movlw	221
  3580     0330  00F0               	movwf	??_TrataInt
  3581     0331                     u194_27:
  3582     0331  0BF0               	decfsz	??_TrataInt,f
  3583     0332  2B31               	goto	u194_27
  3584     0333  0BF1               	decfsz	??_TrataInt+1,f
  3585     0334  2B31               	goto	u194_27
  3586     0335  2B36               	nop2
  3587     0336                     i1l1577:
  3588                           
  3589                           ;main.c: 197:              PORTCbits.RC0 = 1;
  3590     0336  1283               	bcf	3,5	;RP0=0, select bank0
  3591     0337  1303               	bcf	3,6	;RP1=0, select bank0
  3592     0338  1407               	bsf	7,0	;volatile
  3593                           
  3594                           ;main.c: 198:             _delay((unsigned long)((100)*(4000000/4000.0)));
  3595     0339  3082               	movlw	130
  3596     033A  00F1               	movwf	??_TrataInt+1
  3597     033B  30DD               	movlw	221
  3598     033C  00F0               	movwf	??_TrataInt
  3599     033D                     u195_27:
  3600     033D  0BF0               	decfsz	??_TrataInt,f
  3601     033E  2B3D               	goto	u195_27
  3602     033F  0BF1               	decfsz	??_TrataInt+1,f
  3603     0340  2B3D               	goto	u195_27
  3604     0341  2B42               	nop2
  3605     0342  2B43               	goto	i1l96
  3606     0343                     i1l92:	
  3607                           ;main.c: 201:     }
  3608                           
  3609     0343                     i1l96:
  3610     0343  0874               	movf	??_TrataInt+4,w
  3611     0344  00FF               	movwf	btemp+1
  3612     0345  0873               	movf	??_TrataInt+3,w
  3613     0346  008A               	movwf	10
  3614     0347  0E72               	swapf	??_TrataInt+2,w
  3615     0348  0083               	movwf	3
  3616     0349  0EFE               	swapf	btemp,f
  3617     034A  0E7E               	swapf	btemp,w
  3618     034B  0009               	retfie
  3619     034C                     __end_of_TrataInt:
  3620     007E                     btemp	set	126	;btemp
  3621     007E                     wtemp0	set	126
  3622                           
  3623                           	psect	intentry
  3624     0004                     __pintentry:	
  3625                           ;incstack = 0
  3626                           ; Regs used in _TrataInt: [wreg+status,2+status,0+btemp+1]
  3627                           
  3628     0004                     interrupt_function:
  3629     007E                     saved_w	set	btemp
  3630     0004  00FE               	movwf	btemp
  3631     0005  0E03               	swapf	3,w
  3632     0006  00F2               	movwf	??_TrataInt+2
  3633     0007  080A               	movf	10,w
  3634     0008  00F3               	movwf	??_TrataInt+3
  3635     0009  087F               	movf	btemp+1,w
  3636     000A  00F4               	movwf	??_TrataInt+4
  3637     000B  120A  118A  2825   	ljmp	_TrataInt
  3638                           
  3639                           	psect	config
  3640                           
  3641                           ;Config register CONFIG @ 0x2007
  3642                           ;	Oscillator Selection bits
  3643                           ;	FOSC = HS, HS oscillator
  3644                           ;	Watchdog Timer Enable bit
  3645                           ;	WDTE = OFF, WDT disabled
  3646                           ;	Power-up Timer Enable bit
  3647                           ;	PWRTE = ON, PWRT enabled
  3648                           ;	Brown-out Reset Enable bit
  3649                           ;	BOREN = ON, BOR enabled
  3650                           ;	Low-Voltage (Single-Supply) In-Circuit Serial Programming Enable bit
  3651                           ;	LVP = 0x1, unprogrammed default
  3652                           ;	Data EEPROM Memory Code Protection bit
  3653                           ;	CPD = 0x1, unprogrammed default
  3654                           ;	Flash Program Memory Write Enable bits
  3655                           ;	WRT = 0x3, unprogrammed default
  3656                           ;	In-Circuit Debugger Mode bit
  3657                           ;	DEBUG = 0x1, unprogrammed default
  3658                           ;	Flash Program Memory Code Protection bit
  3659                           ;	CP = 0x1, unprogrammed default
  3660     2007                     	org	8199
  3661     2007  3FF2               	dw	16370

Data Sizes:
    Strings     116
    Constant    0
    Data        0
    BSS         14
    Persistent  0
    Stack       0

Auto Spaces:
    Space          Size  Autos    Used
    COMMON           14      5       9
    BANK0            80     13      23
    BANK1            80      0       0
    BANK3            96      0       0
    BANK2            96      0       0

Pointer List with Targets:

    Lcd_Write_String@a	PTR unsigned char  size(1) Largest target is 20
		 -> STR_10(CODE[13]), STR_9(CODE[12]), STR_8(CODE[14]), STR_7(CODE[18]), 
		 -> STR_6(CODE[20]), STR_5(CODE[7]), STR_4(CODE[17]), STR_3(CODE[6]), 
		 -> STR_2(CODE[5]), STR_1(CODE[15]), 


Critical Paths under _main in COMMON

    None.

Critical Paths under _TrataInt in COMMON

    None.

Critical Paths under _main in BANK0

    _main->_Lcd_Set_Cursor
    _Lcd_Write_String->_Lcd_Write_Char
    _Lcd_Write_Char->_Lcd_Port
    _Lcd_Set_Cursor->_Lcd_Cmd
    _Lcd_Init->_Lcd_Cmd
    _Lcd_Clear->_Lcd_Cmd
    _Lcd_Cmd->_Lcd_Port

Critical Paths under _TrataInt in BANK0

    None.

Critical Paths under _main in BANK1

    None.

Critical Paths under _TrataInt in BANK1

    None.

Critical Paths under _main in BANK3

    None.

Critical Paths under _TrataInt in BANK3

    None.

Critical Paths under _main in BANK2

    None.

Critical Paths under _TrataInt in BANK2

    None.

Call Graph Tables:

 ---------------------------------------------------------------------------------
 (Depth) Function   	        Calls       Base Space   Used Autos Params    Refs
 ---------------------------------------------------------------------------------
 (0) _main                                                 7     7      0    2629
                                             10 BANK0      3     3      0
                          _Lcd_Clear
                           _Lcd_Init
                     _Lcd_Set_Cursor
                   _Lcd_Write_String
 ---------------------------------------------------------------------------------
 (1) _Lcd_Write_String                                     3     3      0     744
                                              5 BANK0      3     3      0
                     _Lcd_Write_Char
 ---------------------------------------------------------------------------------
 (2) _Lcd_Write_Char                                       4     4      0     254
                                              1 BANK0      4     4      0
                           _Lcd_Port
 ---------------------------------------------------------------------------------
 (1) _Lcd_Set_Cursor                                       6     5      1    1445
                                              4 BANK0      6     5      1
                            _Lcd_Cmd
 ---------------------------------------------------------------------------------
 (1) _Lcd_Init                                             2     2      0     279
                                              4 BANK0      2     2      0
                            _Lcd_Cmd
                           _Lcd_Port
 ---------------------------------------------------------------------------------
 (1) _Lcd_Clear                                            0     0      0     155
                            _Lcd_Cmd
 ---------------------------------------------------------------------------------
 (2) _Lcd_Cmd                                              3     3      0     155
                                              1 BANK0      3     3      0
                           _Lcd_Port
 ---------------------------------------------------------------------------------
 (3) _Lcd_Port                                             1     1      0     124
                                              0 BANK0      1     1      0
 ---------------------------------------------------------------------------------
 Estimated maximum stack depth 3
 ---------------------------------------------------------------------------------
 (Depth) Function   	        Calls       Base Space   Used Autos Params    Refs
 ---------------------------------------------------------------------------------
 (4) _TrataInt                                             5     5      0       0
                                              0 COMMON     5     5      0
 ---------------------------------------------------------------------------------
 Estimated maximum stack depth 4
 ---------------------------------------------------------------------------------

 Call Graph Graphs:

 _main (ROOT)
   _Lcd_Clear
     _Lcd_Cmd
       _Lcd_Port
   _Lcd_Init
     _Lcd_Cmd
     _Lcd_Port
   _Lcd_Set_Cursor
     _Lcd_Cmd
   _Lcd_Write_String
     _Lcd_Write_Char
       _Lcd_Port

 _TrataInt (ROOT)

 Address spaces:
Name               Size   Autos  Total    Cost      Usage
BITCOMMON            E      0       0       0        0.0%
EEDATA             100      0       0       0        0.0%
NULL                 0      0       0       0        0.0%
CODE                 0      0       0       0        0.0%
COMMON               E      5       9       1       64.3%
BITSFR0              0      0       0       1        0.0%
SFR0                 0      0       0       1        0.0%
BITSFR1              0      0       0       2        0.0%
SFR1                 0      0       0       2        0.0%
STACK                0      0       0       2        0.0%
ABS                  0      0      20       3        0.0%
BITBANK0            50      0       0       4        0.0%
BITSFR3              0      0       0       4        0.0%
SFR3                 0      0       0       4        0.0%
BANK0               50      D      17       5       28.7%
BITSFR2              0      0       0       5        0.0%
SFR2                 0      0       0       5        0.0%
BITBANK1            50      0       0       6        0.0%
BANK1               50      0       0       7        0.0%
BITBANK3            60      0       0       8        0.0%
BANK3               60      0       0       9        0.0%
BITBANK2            60      0       0      10        0.0%
BANK2               60      0       0      11        0.0%
DATA                 0      0      20      12        0.0%


Microchip Technology PIC Macro Assembler V2.40 build 20220703182018 
Symbol Table                                                                                   Tue Dec 13 12:15:55 2022

                       _B 0033                         pc 0002                        l99 07B1  
                      _SA 002D                        _SE 002F                        _SP 0031  
                      fsr 0004                       l100 07B2                       l101 07B8  
                     l102 07B9                       l110 07E3                       l103 07BF  
                     l104 07C0                       l105 07C6                       l113 07F0  
                     l122 06F9                       l107 07C7                       l131 07A7  
                     l125 077E                       l119 0745                       l161 0618  
                     l154 057F                       l146 04C4                       l159 060A  
                     _RD2 0042                       _RD3 0043                       _RD4 0044  
                     _RD5 0045                       _RD6 0046                       _RD7 0047  
                     u990 07AF                       u991 07AE                       fsr0 0004  
                    l2001 03F1                      l2011 03FE                      l2003 03F2  
                    l2101 0561                      l2021 0411                      l2013 0405  
                    l2005 03F3                      l2111 058D                      l2103 056B  
                    l2031 042C                      l2023 0418                      l2015 040E  
                    l2007 03F4                      l2121 05BC                      l2113 0596  
                    l2105 0571                      l2041 043F                      l2033 042D  
                    l2025 041B                      l2017 040F                      l2009 03FB  
                    l2131 05F9                      l2123 05CB                      l2115 059D  
                    l2107 0581                      l2051 0466                      l2043 0448  
                    l2035 042E                      l2027 0422                      l2019 0410  
                    l2133 0603                      l2125 05D5                      l2117 05AC  
                    l2109 0588                      l2061 0495                      l2053 046C  
                    l2045 044C                      l2037 0435                      l2029 042B  
                    l2127 05DB                      l2119 05B2                      l2063 04A4  
                    l2055 0476                      l2071 04C6                      l2047 0450  
                    l2039 0438                      l2129 05EA                      l2137 060C  
                    l2081 04F0                      l2073 04CD                      l2065 04B3  
                    l2057 0485                      l2049 0457                      l2139 0613  
                    l2091 052A                      l2083 04FE                      l2075 04D2  
                    l2067 04BD                      l2059 048F                      l2093 0533  
                    l2085 0508                      l2077 04DB                      l2095 0542  
                    l2079 04EA                      l2087 051E                      l2097 0548  
                    l2089 0525                      l2099 0552                      l1821 07AB  
                    l1823 07AF                      l1831 07CB                      l1911 0352  
                    l1825 07B6                      l1833 07CC                      l1841 0749  
                    l1921 0371                      l1913 0355                      l1905 034C  
                    l1827 07BD                      l1835 07D2                      l1851 0768  
                    l1843 074F                      l1931 0390                      l1923 0374  
                    l1915 0358                      l1907 034F                      l1829 07C4  
                    l1837 07D5                      l1861 07E4                      l1853 076B  
                    l1845 0750                      l1941 03B1                      l1933 039B  
                    l1925 037F                      l1917 0363                      l1909 0351  
                    l1839 07E0                      l1871 0718                      l1863 06FD  
                    l1855 0771                      l1847 075E                      l1951 03B6  
                    l1943 03B2                      l1935 039E                      l1927 0382  
                    l1919 0366                      l1881 073D                      l1865 0702  
                    l1873 0721                      l1857 0774                      l1849 0761  
                    l1961 03BF                      l1953 03B7                      l1945 03B3  
                    l1937 03A9                      l1929 038D                      l1891 06BF  
                    l1883 0697                      l1875 0727                      l1867 070F  
                    l1859 077B                      l1971 03C8                      l1963 03C2  
                    l1955 03BA                      l1947 03B4                      l1939 03AE  
                    l1885 069D                      l1877 0734                      l1869 0712  
                    l1893 0782                      l1981 03D1                      l1973 03CB  
                    l1965 03C3                      l1957 03BB                      l1949 03B5  
                    l1887 06A8                      l1879 0737                      l1895 0785  
                    l1991 03D6                      l1983 03D2                      l1975 03CC  
                    l1967 03C4                      l1959 03BE                      l1889 06B9  
                    l1897 0792                      l1993 03D7                      l1985 03D2  
                    l1977 03CD                      l1969 03C5                      l1899 079A  
                    l1995 03DE                      l1987 03D2                      l1979 03CF  
                    l1997 03E1                      l1989 03D5                      l1999 03E8  
                    _ADIF 0066                      STR_1 065A                      STR_2 068B  
                    STR_3 067E                      STR_4 0649                      STR_5 0690  
                    STR_6 0623                      STR_7 0637                      STR_8 0669  
                    STR_9 0684                      u1000 07B6                      u1001 07B5  
                    u1010 07BD                      u1011 07BC                      u1020 07C4  
                    u1100 0457                      u1021 07C3                      u1101 0456  
                    u1110 0485                      u1111 0484                      u1040 0702  
                    u1200 059D                      u1120 04B3                      u1041 0701  
                    u1201 059C                      u1121 04B2                      u1210 05CB  
                    u1130 04CD                      u1035 0753                      u1211 05CA  
                    u1131 04CC                      u1115 0481                      u1060 0727  
                    u1220 05F9                      u1140 04DB                      u1061 0726  
                    u1221 05F8                      u1141 04DA                      u1125 04AF  
                    u1230 0613                      u1150 0525                      u1055 0708  
                    u1231 0612                      u1215 05C7                      u1151 0524  
                    u1080 07A7                      u1160 0533                      u1081 07A6  
                    u1225 05F5                      u1161 0532                      u1170 0561  
                    u1090 044C                      u1075 072D                      u1171 0560  
                    u1091 044B                      u1307 03DB                      u1180 0588  
                    u1181 0587                      u1317 03E5                      u1190 0596  
                    u1191 0595                      u1175 055D                      u1407 04F8  
                    u1327 03F8                      u1247 035E                      u1417 0516  
                    u1337 0402                      u1257 036C                      u1507 06C5  
                    u1427 054E                      u1347 0415                      u1267 037A  
                    u1517 07DB                      u1437 0579                      u1357 041F  
                    u1277 0388                      u1447 05B8                      u1367 0432  
                    u1287 0396                      u1457 05E3                      u1377 043C  
                    u1297 03A4                      u1467 0765                      u1387 0472  
                    u1477 0778                      u1397 049D                      u1487 06A3  
                    u1497 06B4                      _INTF 0059                      i1l92 0343  
                    i1l84 029A                      i1l96 0343         ?_Lcd_Write_String 0070  
                    _main 034C                      btemp 007E                      start 000E  
      ??_Lcd_Write_String 0075           __end_of_Lcd_Cmd 07E4                     ?_main 0070  
                   STR_10 0677                     _TMR1H 000F                     _TMR1L 000E  
                   u60_20 0029                     u60_21 0028                     u61_20 007C  
                   u61_21 007B                     u70_20 0182                     u62_20 0084  
                   u70_21 0181                     u62_21 0083                     u70_25 017E  
                   u71_20 0191                     u63_20 00BD                     u71_21 0190  
                   u63_21 00BC                     u71_25 018D                     u80_20 02CA  
                   u72_20 01C5                     u64_20 0101                     u80_21 02C9  
                   u72_21 01C4                     u64_21 0100                     u72_25 01C1  
                   u81_20 02D0                     u73_20 01D4                     u65_20 0112  
                   u81_21 02CF                     u73_21 01D3                     u65_21 0111  
                   _TRISA 0085                     _TRISB 0086                     u73_25 01D0  
                   u65_25 010E                     _TRISC 0087                     _TRISD 0088  
                   u82_20 0326                     u74_20 01FC                     u66_20 0142  
                   u82_21 0325                     u74_21 01FB                     u66_21 0141  
                   u74_25 01F8                     u83_20 032C                     u75_20 020B  
                   u67_20 014D                     u83_21 032B                     u75_21 020A  
                   u67_21 014C                     u75_25 0207                     u76_20 0263  
                   u68_20 0154                     u76_21 0262                     u68_21 0153  
                   u76_25 025F                     u77_20 0272                     u69_20 015B  
                   u77_21 0271                     u69_21 015A                     u77_25 026E  
                   u78_20 02A2                     u78_21 02A1                     u79_20 02BE  
                   u79_21 02BD                     _conta 0077                     _valor 0035  
                   pclath 000A                     status 0003                     wtemp0 007E  
        __end_of_Lcd_Init 06FA          __end_of_Lcd_Port 07C8           __initialization 0011  
            __end_of_main 061D                    ??_main 002A          __end_of_TrataInt 034C  
                  _ADRESH 001E                    _ADRESL 009E                    i1l1401 0093  
                  i1l1403 009C                    i1l1411 00B4                    i1l1501 01ED  
                  i1l1421 00CC                    i1l1413 00BD                    i1l1405 009F  
                  i1l1511 0223                    i1l1503 01FC                    i1l1431 00ED  
                  i1l1423 00D5                    i1l1415 00BF                    i1l1407 00A8  
                  i1l1521 0263                    i1l1513 022F                    i1l1505 020B  
                  i1l1441 0103                    i1l1433 00F0                    i1l1425 00D8  
                  i1l1417 00C0                    i1l1409 00AB                    i1l1531 0296  
                  i1l1523 0272                    i1l1515 023B                    i1l1507 020E  
                  i1l1451 0123                    i1l1443 0112                    i1l1427 00E1  
                  i1l1419 00C9                    i1l1435 00FA                    i1l1371 0029  
                  i1l1525 0275                    i1l1517 0247                    i1l1509 0217  
                  i1l1533 029B                    i1l1453 012C                    i1l1445 0116  
                  i1l1437 0101                    i1l1429 00E4                    i1l1541 02B8  
                  i1l1381 005A                    i1l1373 002D                    i1l1551 02D0  
                  i1l1543 02BE                    i1l1535 02A2                    i1l1527 027E  
                  i1l1519 0254                    i1l1471 015D                    i1l1463 0144  
                  i1l1455 012F                    i1l1447 0117                    i1l1391 007D  
                  i1l1383 0066                    i1l1375 0036                    i1l1561 02FE  
                  i1l1553 02D1                    i1l1545 02BF                    i1l1537 02A3  
                  i1l1529 028A                    i1l1481 0182                    i1l1473 015E  
                  i1l1465 014D                    i1l1449 0120                    i1l1457 0139  
                  i1l1393 0084                    i1l1385 0072                    i1l1377 0042  
                  i1l1369 0025                    i1l1571 0326                    i1l1563 030A  
                  i1l1555 02DA                    i1l1547 02C3                    i1l1539 02AC  
                  i1l1483 0191                    i1l1491 01B6                    i1l1475 0167  
                  i1l1467 0154                    i1l1459 0142                    i1l1395 0086  
                  i1l1379 004E                    i1l1387 0076                    i1l1573 032C  
                  i1l1565 0316                    i1l1557 02E6                    i1l1549 02CA  
                  i1l1493 01C5                    i1l1485 0194                    i1l1477 016A  
                  i1l1469 015B                    i1l1397 0087                    i1l1389 007C  
                  i1l1575 032D                    i1l1567 0318                    i1l1559 02F2  
                  i1l1495 01D4                    i1l1487 019D                    i1l1479 0173  
                  i1l1399 0090                    i1l1577 0336                    i1l1569 031F  
                  i1l1497 01D7                    i1l1489 01A9                    i1l1499 01E0  
                  u160_27 00A3                    u152_27 0031                    u161_27 00AF  
                  u153_27 003D                    u170_27 0162                    u162_27 00C4  
                  u154_27 0049                    u171_27 016E                    u163_27 00D0  
                  u155_27 0055                    u180_27 0236                    u172_27 0198  
                  u164_27 00DC                    u156_27 0061                    u181_27 0242  
                  u173_27 01A4                    u165_27 00E8                    u157_27 006D  
                  u190_27 02ED                    u182_27 024E                    u174_27 01B0  
                  u166_27 00F4                    u158_27 008B                    u191_27 02F9  
                  u183_27 0279                    u175_27 01DB                    u167_27 011B  
                  u159_27 0097                    u192_27 0305                    u184_27 0285  
                  u176_27 01E7                    u168_27 0127                    u193_27 0311  
                  u185_27 0291                    u177_27 0212                    u169_27 0133  
                  u194_27 0331                    u186_27 02A7                    u178_27 021E  
                  u195_27 033D                    u187_27 02B3                    u179_27 022A  
                  u188_27 02D5                    u189_27 02E1                 ??_Lcd_Cmd 0021  
                  _TMR1IF 0060                    saved_w 007E           Lcd_Set_Cursor@a 0026  
         Lcd_Set_Cursor@b 0024           Lcd_Set_Cursor@y 0028           Lcd_Set_Cursor@z 0027  
 __end_of__initialization 0021         __end_of_Lcd_Clear 07F1            __pcstackCOMMON 0070  
          _Lcd_Set_Cursor 06FA            _OPTION_REGbits 0081                 ?_Lcd_Init 0070  
               ?_Lcd_Port 0070                __pbssBANK0 002D                __pmaintext 034C  
               ?_TrataInt 0070                __pintentry 0004    __end_of_Lcd_Set_Cursor 0746  
              ??_Lcd_Init 0024                ??_Lcd_Port 0075                __stringtab 061D  
          _Lcd_Write_Char 0746                   _Lcd_Cmd 07C8                ??_TrataInt 0070  
         ?_Lcd_Set_Cursor 0024                   __ptext1 077F                   __ptext2 0746  
                 __ptext3 06FA                   __ptext4 0697                   __ptext5 07E4  
                 __ptext6 07C8                   __ptext7 07A8                   __ptext8 0025  
               _T1CONbits 0010                   _paradas 0075    __end_of_Lcd_Write_Char 077F  
    end_of_initialization 0021                 Lcd_Port@a 0020                 _PORTBbits 0006  
               _PORTCbits 0007           ?_Lcd_Write_Char 0070         Lcd_Write_String@a 0027  
       Lcd_Write_String@i 0025                 _Lcd_Clear 07E4          _Lcd_Write_String 077F  
     start_initialization 0011                ?_Lcd_Clear 0070           Lcd_Write_Char@a 0024  
         Lcd_Write_Char@y 0023               __pbssCOMMON 0075                 ___latbits 0002  
           __pcstackBANK0 0020                  ?_Lcd_Cmd 0070          ??_Lcd_Set_Cursor 0025  
               __pstrings 061D         interrupt_function 0004                  _PIE1bits 008C  
                Lcd_Cmd@a 0023                  _PIR1bits 000C               ??_Lcd_Clear 0075  
              _ADCON0bits 001F               __stringbase 0622                _ADCON1bits 009F  
        ??_Lcd_Write_Char 0021                  _Lcd_Init 0697                  _Lcd_Port 07A8  
__end_of_Lcd_Write_String 07A8                  _TrataInt 0025        __end_of__stringtab 0623  
              _INTCONbits 000B        Lcd_Write_Char@temp 0022                  intlevel1 0000  
               stringcode 061D        Lcd_Set_Cursor@temp 0029                  stringdir 061D  
                stringtab 061D  
